ccollections
defaultdict
p0
(c__builtin__
list
p1
tp2
Rp3
S'validation_avg_acc'
p4
(lp5
F2.8940568475452197
aF3.1782945736434107
aF4.521963824289406
aF4.444444444444445
aF6.2015503875969
aF7.235142118863049
aF7.51937984496124
aF9.250645994832041
aF11.343669250645995
aF14.237726098191214
aF17.51937984496124
aF20.41343669250646
aF23.25581395348837
aF27.85529715762274
aF29.664082687338503
aF35.24547803617571
aF37.88113695090439
aF42.19638242894057
aF48.11369509043928
aF48.34625322997416
aF54.05684754521964
aF57.2609819121447
aF62.76485788113695
aF61.13695090439276
aF64.85788113695091
aF69.7157622739018
aF71.03359173126616
aF74.72868217054264
aF76.2015503875969
aF75.91731266149871
aF77.9328165374677
aF75.50387596899225
aF79.40568475452196
aF79.81912144702842
aF81.34366925064599
aF78.88888888888889
aF80.51679586563307
aF81.57622739018088
aF81.80878552971576
aF82.91989664082688
aF81.6795865633075
aF83.66925064599484
aF84.08268733850129
aF83.72093023255815
aF84.83204134366925
aF83.61757105943153
aF84.65116279069767
aF83.35917312661499
aF83.97932816537468
aF84.21188630490956
aF83.48837209302326
aF85.03875968992249
aF85.29715762273902
aF84.98708010335918
aF86.2015503875969
aF85.5813953488372
aF86.2532299741602
aF85.42635658914729
aF86.14987080103359
aF86.84754521963825
aF86.07235142118863
aF86.64082687338501
aF85.11627906976744
aF86.69250645994832
aF86.51162790697674
aF86.43410852713178
aF86.33074935400516
aF86.71834625322997
aF86.12403100775194
aF86.71834625322997
aF86.56330749354005
aF86.77002583979328
aF86.69250645994832
aF86.82170542635659
aF87.44186046511628
aF86.71834625322997
aF86.22739018087856
aF86.45994832041343
aF87.08010335917312
aF87.36434108527132
aF87.08010335917312
aF86.84754521963825
aF87.75193798449612
aF87.6485788113695
aF86.84754521963825
aF87.41602067183463
aF87.44186046511628
aF87.46770025839793
aF87.75193798449612
aF87.62273901808786
aF87.23514211886305
aF87.00258397932816
aF87.67441860465117
aF87.88113695090439
aF88.2687338501292
aF88.11369509043928
aF88.11369509043928
aF88.50129198966408
aF87.49354005167959
aF87.77777777777777
aF88.11369509043928
aF88.75968992248062
aF87.88113695090439
aF88.11369509043928
aF88.88888888888889
aF88.75968992248062
aF88.24289405684755
aF88.68217054263566
aF88.11369509043928
aF88.44961240310077
aF88.52713178294573
aF88.68217054263566
aF88.52713178294573
aF89.04392764857882
aF89.06976744186046
aF88.52713178294573
aF89.12144702842377
aF88.68217054263566
aF88.70801033591731
aF88.68217054263566
aF88.13953488372093
aF88.6046511627907
aF88.91472868217055
aF88.83720930232558
aF89.328165374677
aF88.78552971576228
aF88.2687338501292
aF89.35400516795866
aF89.7157622739018
aF89.01808785529715
aF88.81136950904393
aF89.40568475452196
aF89.14728682170542
aF89.04392764857882
aF89.37984496124031
aF88.91472868217055
aF89.43152454780362
aF88.9922480620155
aF88.81136950904393
aF89.81912144702842
aF89.6640826873385
aF89.50904392764858
aF89.74160206718346
aF89.7157622739018
aF89.2248062015504
aF87.95865633074935
aF89.30232558139535
aF88.96640826873384
aF89.14728682170542
aF89.37984496124031
asS'validation_avg_loss'
p6
(lp7
F3.775812575860233
aF3.8431083994626385
aF3.9045368322722362
aF3.93540381695257
aF3.967488098144531
aF3.9524700825220545
aF3.943412619105297
aF3.860794781036771
aF3.7132279092951337
aF3.553894088311405
aF3.373840315274182
aF3.187779718837689
aF3.0109649313204665
aF2.8330838796088247
aF2.670736285759189
aF2.4731584764574235
aF2.294822198907226
aF2.1324467299212473
aF1.9962068373842756
aF1.880481704137738
aF1.6858248433632443
aF1.538240558555884
aF1.3772252167996202
aF1.2969890809952442
aF1.2291480127885668
aF1.0945874978251544
aF1.0463519498648108
aF0.9432076492743898
aF0.8994434850612891
aF0.9487521552954842
aF0.8977396008329952
aF0.8928705398859673
aF0.7643033750913556
aF0.7343424484480259
aF0.7150448187463736
aF0.8085486043379365
aF0.6863753881488351
aF0.6840100979764563
aF0.6600745566454006
aF0.6263935237805279
aF0.6838660397865263
aF0.6125601641641261
aF0.5874504382368322
aF0.6075374328302705
aF0.5874180092964831
aF0.6011520309768406
aF0.5698775538967715
aF0.6224654028336554
aF0.6142041920616895
aF0.5859752241137031
aF0.6023109326781633
aF0.5515602514138133
aF0.5605778478728535
aF0.5761994254078658
aF0.540988999580151
aF0.5854432689757579
aF0.5363000423418844
aF0.562334205472038
aF0.5311559638999961
aF0.5150143769138928
aF0.5529481959747011
aF0.5228315655808674
aF0.5661431790502786
aF0.5355927332990276
aF0.5396546126760841
aF0.5296406017011152
aF0.5401581830667568
aF0.4949650923822566
aF0.5440086550312718
aF0.5467808557055813
aF0.5520514096465511
aF0.5341310729816536
aF0.5413726961865867
aF0.5248591229094562
aF0.515626715410751
aF0.5378070809442829
aF0.5320608481810517
aF0.5263868683109238
aF0.5388792444429618
aF0.5206587087554323
aF0.5360226311468224
aF0.5391383724615642
aF0.5262123369916826
aF0.5310490249268691
aF0.5684794575521646
aF0.5191011368863776
aF0.5371872871197299
aF0.5534958792144062
aF0.5077907011408036
aF0.5421963694364612
aF0.5499146521149217
aF0.5431642461373791
aF0.5178065786494943
aF0.5225597407481121
aF0.506530041332797
aF0.5153305791481458
aF0.4982421740682589
aF0.4942822498138826
aF0.555022728818683
aF0.5228280993269935
aF0.4897886363641438
aF0.48832757117958303
aF0.5436875730750539
aF0.5050127692174682
aF0.5117250392902329
aF0.4947487198369871
aF0.5136763061911772
aF0.5056593556347235
aF0.5386085446612328
aF0.5027344235866114
aF0.5160823903701723
aF0.5164218340440261
aF0.523768261195466
aF0.5205287229968837
aF0.5169028656357462
aF0.5098198319968794
aF0.5224657518237177
aF0.5162671411628967
aF0.5170978208820309
aF0.5165403073090152
aF0.5263468227604613
aF0.5360054858473192
aF0.49349736367882946
aF0.5155809596489251
aF0.5049950801114039
aF0.5245298937478077
aF0.5540985047531155
aF0.4945765798257782
aF0.4701318830765786
aF0.509132007942523
aF0.5285472552567294
aF0.45687611521930416
aF0.5025485600099071
aF0.49823337411058244
aF0.4964121933436883
aF0.5273388035343033
aF0.48837213965524795
aF0.5105114123313832
aF0.5240619898761998
aF0.4983445493867789
aF0.4782009541163689
aF0.4995707667285928
aF0.48162398979567755
aF0.49474949690288306
aF0.5234670346366056
aF0.6279840826564899
aF0.5424465870480498
aF0.5418297552303002
aF0.5488690004135044
aF0.525798280360881
asS'lr'
p8
(lp9
F0.001
aF0.001
aF0.001
aF0.001
aF0.001
aF0.001
aF0.001
aF0.001
aF0.001
aF0.001
aF0.001
aF0.001
aF0.001
aF0.001
aF0.001
aF0.001
aF0.001
aF0.001
aF0.001
aF0.001
aF0.001
aF0.001
aF0.001
aF0.001
aF0.001
aF0.001
aF0.001
aF0.001
aF0.001
aF0.001
aF0.001
aF0.001
aF0.001
aF0.001
aF0.001
aF0.0005
aF0.0005
aF0.0005
aF0.0005
aF0.0005
aF0.0005
aF0.0005
aF0.0005
aF0.0005
aF0.0005
aF0.0005
aF0.0005
aF0.0005
aF0.0005
aF0.0005
aF0.0005
aF0.0005
aF0.00025
aF0.00025
aF0.00025
aF0.00025
aF0.00025
aF0.00025
aF0.00025
aF0.00025
aF0.00025
aF0.00025
aF0.00025
aF0.00025
aF0.00025
aF0.00025
aF0.00025
aF0.00025
aF0.00025
aF0.00025
aF0.00025
aF0.00025
aF0.00025
aF0.00025
aF0.00025
aF0.00025
aF0.00025
aF0.00025
aF0.00025
aF0.00025
aF0.00025
aF0.00025
aF0.00025
aF0.00025
aF0.00025
aF0.00025
aF0.00025
aF0.00025
aF0.00025
aF0.00025
aF0.00025
aF0.00025
aF0.00025
aF0.00025
aF0.00025
aF0.00025
aF0.00025
aF0.00025
aF0.00025
aF0.00025
aF0.00025
aF0.00025
aF0.00025
aF0.00025
aF0.00025
aF0.00025
aF0.00025
aF0.00025
aF0.00025
aF0.00025
aF0.00025
aF0.00025
aF0.00025
aF0.00025
aF0.00025
aF0.00025
aF0.00025
aF0.00025
aF0.00025
aF0.00025
aF0.00025
aF0.00025
aF0.00025
aF0.00025
aF0.00025
aF0.00025
aF0.00025
aF0.00025
aF0.00025
aF0.00025
aF0.00025
aF0.00025
aF0.00025
aF0.00025
aF0.00025
aF0.00025
aF0.00025
aF0.00025
aF0.00025
aF0.00025
aF0.00025
aF0.00025
aF0.00025
aF0.00025
aF0.00025
aF0.00025
aF0.00025
aF0.00025
aF0.00025
aF0.00025
asS'training_avg_acc'
p10
(lp11
F2.733523868813492
aF5.597215540903817
aF6.935680126772121
aF7.566710999179377
aF8.492034296386429
aF10.003112708339229
aF12.193327485214635
aF15.368289991227822
aF19.126177877132914
aF24.30459265966779
aF29.43773168454116
aF33.631398737938255
aF38.17312317835819
aF41.56031579840969
aF45.1852061461841
aF48.56956903138176
aF52.01335634851014
aF54.99023741475424
aF58.04069158719828
aF60.98927530490393
aF64.02558080307875
aF66.09128724638501
aF68.26169387928351
aF70.12648914796684
aF72.29689578086533
aF73.64384957129516
aF75.08701434675571
aF76.40284105379325
aF77.97617363253063
aF78.70058575511474
aF79.9145420074139
aF80.98418178216701
aF81.69727496533575
aF82.70466057330428
aF83.27343727892696
aF84.1336766744956
aF84.71660205438751
aF84.84111038795665
aF85.1835083052718
aF85.89377175358669
aF86.09468292820962
aF86.39463482271711
aF86.45405925464785
aF86.65780016412462
aF87.21525793033193
aF87.69065338577775
aF87.28034183197035
aF87.79818331022383
aF87.67367497665468
aF88.36978975070036
aF88.42921418263109
aF88.65276323608478
aF89.01213956252299
aF88.98101247913071
aF89.24134808568436
aF89.17060471433827
aF89.23285888112284
aF89.51017289679957
aF89.36585641925352
aF89.64882990463794
aF89.60921361668412
aF89.7167435411302
aF89.84691134440703
aF89.73372195025325
aF89.86671948838394
aF89.95161153399927
aF90.13837403435298
aF90.18647952686834
aF90.09592801154531
aF90.29117971646056
aF90.43549619400662
aF90.28834998160673
aF90.35343388324515
aF90.574153201845
aF90.5232179744758
aF90.5883018761142
aF90.62508842921419
aF90.82034013412944
aF90.65904524746031
aF91.27309771074451
aF90.84863748266787
aF90.80619145986022
aF91.1768867257138
aF91.04388918758312
aF91.21084354395992
aF91.19669486969072
aF91.20801380910609
aF91.10331361951386
aF91.40326551402134
aF91.227821953083
aF91.6126658932058
aF91.55890093098277
aF91.54475225671355
aF91.35798975635983
aF91.52777384759048
aF91.79376892385183
aF91.5673901355443
aF91.51928464302895
aF91.90412858315176
aF91.85319335578257
aF91.83904468151334
aF92.02014771215937
aF91.85885282549025
aF92.0795721440901
aF92.13899657602083
aF91.96921248479018
aF92.24369676561307
aF92.0031693030363
aF92.0342963864286
aF92.45309714479754
aF92.28614278842072
aF92.07391267438241
aF92.01448824245168
aF92.46441608421291
aF92.28614278842072
aF92.18710206853618
aF92.54364866012055
aF92.42762953111294
aF92.65683805427432
aF92.58326494807436
aF92.43611873567447
aF92.58043521322053
aF92.72758142562041
aF92.48705396304366
aF92.94547100936643
aF92.74173009988964
aF92.65117858456662
aF92.84077081977419
aF92.89453578199722
aF92.91434392597414
aF93.03885225954328
aF93.15770112340473
aF92.82379241065112
aF93.10110642632786
aF92.93415206995104
aF93.29918786609694
aF93.13223350972014
aF93.2510823735816
aF93.35012309346614
aF93.23693369931237
aF93.55103426808908
aF93.26806078270467
aF93.33031494948924
aF93.37842044200458
aF93.30767707065849
aF93.56235320750446
aF93.50858824528142
aF93.3218257449277
aF93.3218257449277
aF93.53688559381986
asS'training_avg_loss'
p12
(lp13
F3.76320344800843
aF3.6561141209346117
aF3.5560026834579075
aF3.4879539758747073
aF3.439270614096816
aF3.390324534326577
aF3.3138018113998267
aF3.214365943812188
aF3.071006317158102
aF2.873391905564694
aF2.6583159414953252
aF2.464567711439726
aF2.276952611566511
aF2.1125806895206143
aF1.961575527251072
aF1.8209146346728537
aF1.6929084580615021
aF1.574037387370456
aF1.4583929758086203
aF1.3547983487725963
aF1.2497709527101097
aF1.1730724680575197
aF1.0949485406611412
aF1.0239168409884403
aF0.9517957941644304
aF0.9055606172561051
aF0.8456832007117201
aF0.8046594177604905
aF0.7519208333998207
aF0.7200071573183233
aF0.6833935047323343
aF0.6500307888837469
aF0.6272189690492672
aF0.5904083586585162
aF0.5745772900108153
aF0.533151533429673
aF0.5208580042511084
aF0.5194648845332255
aF0.5032613413379567
aF0.48152311709306383
aF0.47558834714751086
aF0.46602871618609826
aF0.45810893973158895
aF0.45483127779553
aF0.44210251313612736
aF0.4280252734355656
aF0.4282082946998309
aF0.4213084411754677
aF0.4179723793812824
aF0.401758086293773
aF0.3998914101474701
aF0.3905094908502154
aF0.377786709971587
aF0.3781129828994169
aF0.3728572354292019
aF0.37314585849173443
aF0.3692499330403455
aF0.36623579537093653
aF0.36565479253574995
aF0.363434298981187
aF0.35963802519939986
aF0.35824134880174296
aF0.3516446740238886
aF0.3518416423213216
aF0.3473019726750887
aF0.34278138425523647
aF0.3409705223779855
aF0.3375356856433863
aF0.340767485611224
aF0.3362095619038014
aF0.3298521911373682
aF0.3327060698410419
aF0.3251916229726571
aF0.3274018781531049
aF0.3255919605858706
aF0.32835655609912817
aF0.32130558348602023
aF0.3167263655297005
aF0.31741538155972476
aF0.3048396849086462
aF0.31425229610977556
aF0.31563188174290463
aF0.3053202503062613
aF0.31151561523327825
aF0.3041504080697189
aF0.30456108097215234
aF0.3044983863631541
aF0.30955236644702233
aF0.2970742850626273
aF0.2974592055252032
aF0.2882418222616813
aF0.2944324187327836
aF0.2891945759048317
aF0.29023963599716546
aF0.28931433590696
aF0.280216226830352
aF0.286476283227383
aF0.29037416032693486
aF0.2844919962447704
aF0.2791042536553619
aF0.2786031080906762
aF0.2796744766433432
aF0.2769755771472561
aF0.273691595040894
aF0.27187411225629066
aF0.2737662750815336
aF0.2705602888111186
aF0.27204797510724443
aF0.26976446536128457
aF0.26442711829410526
aF0.26906356188406205
aF0.27064176872315704
aF0.2740253202039279
aF0.2589135393228355
aF0.27136170606721915
aF0.2650416600838788
aF0.2566682625081362
aF0.2554559022016991
aF0.25337480584552113
aF0.25325764748603447
aF0.259463607510989
aF0.2543911065474819
aF0.24826303182533005
aF0.25725652955040473
aF0.24239454517954426
aF0.249198385584236
aF0.24962731657052756
aF0.24668210450536768
aF0.24547067192239772
aF0.24597971646280212
aF0.24148531401766934
aF0.23822829886558738
aF0.24272295189934692
aF0.235261072127887
aF0.23725423316247982
aF0.23229026015031054
aF0.23793230231938517
aF0.2338412118290677
aF0.22868597965909204
aF0.23293468603648895
aF0.2279623120550072
aF0.23588730977958489
aF0.2288296355713122
aF0.2271085477562785
aF0.22875659831253856
aF0.22274167792238941
aF0.22249475530427226
aF0.22774363262361424
aF0.22883917062950948
aF0.22735464246707726
asS'best_val_acc'
p14
(lp15
I140
aF89.81912144702842
as.