ccollections
defaultdict
p0
(c__builtin__
list
p1
tp2
Rp3
S'validation_avg_acc'
p4
(lp5
F5.4005167958656335
aF7.441860465116279
aF9.509043927648579
aF11.291989664082687
aF12.661498708010337
aF14.418604651162791
aF15.37467700258398
aF16.847545219638242
aF17.64857881136951
aF18.217054263565892
aF18.527131782945737
aF18.992248062015506
aF19.43152454780362
aF19.638242894056848
aF19.844961240310077
aF20.232558139534884
aF20.41343669250646
aF20.594315245478036
aF20.56847545219638
aF20.46511627906977
aF20.74935400516796
aF20.82687338501292
aF21.162790697674417
aF21.136950904392766
aF21.11111111111111
aF21.31782945736434
aF21.266149870801033
aF21.03359173126615
aF20.930232558139537
aF21.498708010335918
aF20.74935400516796
aF20.930232558139537
aF20.594315245478036
aF20.74935400516796
aF20.594315245478036
aF20.878552971576227
aF20.56847545219638
aF20.20671834625323
aF20.439276485788113
aF19.53488372093023
aF20.103359173126616
aF19.948320413436694
aF20.025839793281655
aF19.664082687338503
aF19.689922480620154
aF19.224806201550386
aF18.863049095607234
aF19.09560723514212
aF19.09560723514212
aF19.018087855297157
aF19.09560723514212
aF18.940568475452196
aF18.501291989664082
aF18.992248062015506
aF19.147286821705425
aF19.302325581395348
aF19.09560723514212
aF19.121447028423773
aF19.43152454780362
aF18.863049095607234
aF18.75968992248062
aF18.6046511627907
aF19.09560723514212
aF19.354005167958658
aF18.940568475452196
aF18.96640826873385
aF18.75968992248062
aF18.55297157622739
aF18.578811369509044
aF18.70801033591731
aF18.397932816537466
aF18.70801033591731
aF18.449612403100776
aF18.55297157622739
aF18.475452196382427
aF18.475452196382427
aF18.372093023255815
aF18.449612403100776
aF18.34625322997416
aF18.320413436692508
aF18.475452196382427
aF18.475452196382427
aF17.958656330749353
aF18.578811369509044
aF18.113695090439276
aF18.397932816537466
aF18.294573643410853
aF18.397932816537466
aF18.036175710594314
aF17.984496124031008
aF18.165374677002585
aF18.036175710594314
aF18.165374677002585
aF17.72609819121447
aF18.010335917312663
aF17.751937984496124
aF17.364341085271317
aF17.751937984496124
aF17.441860465116278
aF17.57105943152455
asS'training_avg_acc'
p6
(lp7
F7.889300772517615
aF14.431647754605393
aF20.331644924870538
aF26.769291717366084
aF34.319024307422396
aF40.9462633351255
aF46.60290330796004
aF51.181414301479954
aF54.905345369138914
aF58.193497269305865
aF61.49579784374204
aF63.15402246809474
aF64.8999688729166
aF67.04207815727666
aF69.31718497976739
aF69.7529641472594
aF71.27536149862757
aF72.6534423724497
aF73.17128385070319
aF74.0881179433487
aF75.04173858909421
aF76.25286510653952
aF76.3547355612779
aF77.08480715356971
aF77.37344010866182
aF77.96485469311526
aF78.23933897393815
aF79.09108916494525
aF79.47593310506805
aF79.41933840799118
aF79.61459011290643
aF80.2088344322137
aF80.39842666742126
aF80.87948159257478
aF81.38317439655904
aF81.547299018082
aF81.78782648065877
aF81.35204731316675
aF81.83027250346643
aF82.5773225048813
aF82.47262231528906
aF82.58864144429667
aF82.67919295961968
aF82.33962477715838
aF82.7442768612581
aF82.87727439938878
aF83.03008008149637
aF82.77823367950423
aF83.39511587764227
aF83.45171057471914
aF83.72053538583435
aF83.54792155974985
aF83.79127875718045
aF83.75732193893433
aF83.89880868162653
aF83.8393842496958
aF83.94691417414188
aF83.87334106794194
aF83.68940830244206
aF84.2100795155494
aF84.04878462888027
aF84.15065508361866
aF84.17046322759558
aF84.14216587905713
aF84.53266928888763
aF84.05727383344181
aF84.54681796315685
aF84.65717762245677
aF84.34307705368008
aF84.64868841789524
aF84.86657800164124
aF84.65717762245677
aF84.77319675146438
aF84.9854268655027
aF84.68264523614137
aF85.00240527462577
aF85.13540281275644
aF85.06748917626419
aF84.7420696680721
aF85.20048671439486
aF84.82413197883358
aF85.00240527462577
aF85.6249469424715
aF84.99391607006423
aF85.43252497241008
aF85.28537876001019
aF85.44384391182547
aF85.234443532641
aF85.3504626616486
aF85.78624182914061
aF85.68720110925607
aF85.4268655027024
aF85.87396360960977
aF85.55703330597923
aF85.46082232094852
aF85.58533065451768
aF85.61645773790995
aF85.68720110925607
aF85.4466736466793
aF85.79756076855598
asS'training_avg_loss'
p8
(lp9
F3.5700998563455326
aF3.3144849374961587
aF3.0935670419852377
aF2.887641368142622
aF2.675011040719864
aF2.496157847848974
aF2.328999742067354
aF2.191040095518163
aF2.062565173583024
aF1.945130970108411
aF1.8464286427144476
aF1.757916535804671
aF1.690400675496173
aF1.6145619505981006
aF1.5428759138977937
aF1.4970205610820342
aF1.4415094824179198
aF1.3908814435337256
aF1.3519437502727143
aF1.3125072666965825
aF1.2732102192704093
aF1.2371618024271802
aF1.2138532975178837
aF1.1794337492826525
aF1.1584281538179064
aF1.1352106303937157
aF1.1116917362243899
aF1.080028759434361
aF1.0584032433341781
aF1.044507086501333
aF1.036727324578909
aF1.0134767097704795
aF0.9968672259364834
aF0.9744606806610607
aF0.9604525200569548
aF0.9380661846674603
aF0.9332810476426104
aF0.9309726887153524
aF0.9134793300580626
aF0.8972312267481254
aF0.8849770499461812
aF0.8739847902524498
aF0.8680946056539004
aF0.8702603832408843
aF0.856013993232723
aF0.8470150901612868
aF0.8428856129590844
aF0.8334607321572609
aF0.818818178945724
aF0.8148923314903949
aF0.7997970416977044
aF0.7981403439561541
aF0.7929955728356497
aF0.7870755799169731
aF0.7736542152088072
aF0.7771644896692363
aF0.7645250926172529
aF0.7652016987321993
aF0.7691893721008689
aF0.7523358426341926
aF0.7494761946448318
aF0.7469877491695184
aF0.7433301642085516
aF0.7425744486784785
aF0.7310885058021723
aF0.7377275890984092
aF0.7219817035452356
aF0.7131383828353914
aF0.7221043796496668
aF0.7131056916063003
aF0.7042369694643527
aF0.7022641447843337
aF0.7043449999659409
aF0.6971738974743591
aF0.7004662084675269
aF0.6937795933622224
aF0.687348488005344
aF0.683670284016812
aF0.6822242843682766
aF0.6793899185848633
aF0.6766191792510362
aF0.6798097579223319
aF0.6617453712846155
aF0.6675062625651523
aF0.6631944028613165
aF0.6591574496359873
aF0.6601789528406241
aF0.6590294146153899
aF0.6498105837056813
aF0.6449232903747723
aF0.6484812372167108
aF0.6513716365408656
aF0.6377012920506475
aF0.6421958225254238
aF0.6430921126290396
aF0.6427179488373644
aF0.6417161312528038
aF0.63382261421918
aF0.6358492805461311
aF0.629738424443582
asS'validation_avg_loss'
p10
(lp11
F3.777127236851734
aF3.7781583859938985
aF3.7690842818228156
aF3.748929434290844
aF3.742162498454407
aF3.7376279412005915
aF3.730544348034132
aF3.7208264294212796
aF3.723926526446675
aF3.7246535722599474
aF3.7179104689171765
aF3.718011125668075
aF3.72654274243101
aF3.72190442146873
aF3.724948780542812
aF3.7307102686366984
aF3.7307262095370035
aF3.74170940310456
aF3.737840663308629
aF3.7435330984820383
aF3.7386137437450793
aF3.7422974303095224
aF3.7431703355577257
aF3.750965646748703
aF3.7562694303133073
aF3.755813145206264
aF3.756090125741885
aF3.7668072702964763
aF3.7550197828031635
aF3.758647985729444
aF3.764123832840636
aF3.7599683382098372
aF3.7630050600037093
aF3.7656528798184654
aF3.765243053189852
aF3.7674343473843517
aF3.7683358953904738
aF3.773036109076606
aF3.7748143947709747
aF3.7700376722547744
aF3.7746648960951377
aF3.773547909364528
aF3.7724174637511103
aF3.779258073515978
aF3.7736882409384083
aF3.773773721699875
aF3.7791814109151676
aF3.7802791230746324
aF3.7813971901432795
aF3.7880718714199015
aF3.7783077466703507
aF3.7742999429234545
aF3.7736839807002736
aF3.7773700645111634
aF3.778743201756046
aF3.7824393733219277
aF3.783769417301937
aF3.7802122032303527
aF3.7777465682313114
aF3.77722159294503
aF3.7870128799162477
aF3.783562625224584
aF3.7877341593266767
aF3.7824566114164444
aF3.7834498876133016
aF3.789514546554526
aF3.793037576207203
aF3.7806792108895553
aF3.7900819053945614
aF3.7833493215477128
aF3.7864862860943305
aF3.777066272666596
aF3.792968511458207
aF3.7815550141248284
aF3.7859927924104437
aF3.7851079088156845
aF3.7986911408968984
aF3.780089953518653
aF3.7829319778954953
aF3.79310566313199
aF3.7856353996335996
aF3.7805195318019975
aF3.778290033463668
aF3.7797942247809675
aF3.7868236571319343
aF3.7866490859393926
aF3.7816033848804405
aF3.786784106508398
aF3.776994436101396
aF3.7864777833608385
aF3.7831684832117047
aF3.782834163931913
aF3.7740088825077973
aF3.77579047230171
aF3.790399098950763
aF3.7879059113889393
aF3.7779773229160356
aF3.7771022234776224
aF3.7660364550213483
aF3.77742752745478
as.