ccollections
defaultdict
p0
(c__builtin__
list
p1
tp2
Rp3
S'validation_avg_acc'
p4
(lp5
F13.7984496124031
aF17.906976744186046
aF29.09560723514212
aF34.57364341085271
aF37.41602067183462
aF38.68217054263566
aF43.59173126614987
aF44.78036175710594
aF48.29457364341085
aF49.43152454780362
aF50.82687338501292
aF51.83462532299742
aF53.07493540051679
aF54.05684754521964
aF54.883720930232556
aF55.968992248062015
aF56.58914728682171
aF57.23514211886305
aF56.666666666666664
aF57.49354005167959
aF58.24289405684755
aF57.622739018087856
aF59.6124031007752
aF59.224806201550386
aF59.276485788113696
aF59.19896640826873
aF60.07751937984496
aF59.94832041343669
aF61.26614987080104
aF60.3875968992248
aF61.42118863049095
aF61.36950904392765
aF61.7312661498708
aF62.041343669250644
aF62.22222222222222
aF63.333333333333336
aF61.98966408268734
aF62.713178294573645
aF62.97157622739018
aF63.17829457364341
aF63.229974160206716
aF64.03100775193798
aF64.03100775193798
aF63.30749354005168
aF64.23772609819122
aF64.65116279069767
aF64.36692506459949
aF65.45219638242894
aF65.50387596899225
aF64.65116279069767
aF64.78036175710594
aF64.67700258397933
aF65.11627906976744
aF65.50387596899225
aF65.32299741602067
aF65.50387596899225
aF66.09819121447029
aF66.2015503875969
aF66.69250645994832
aF66.17571059431525
aF66.2015503875969
aF66.95090439276485
aF66.77002583979328
aF66.64082687338501
aF66.22739018087856
aF67.31266149870801
aF67.18346253229974
aF67.08010335917312
aF66.97674418604652
aF67.88113695090439
aF67.41602067183463
aF68.03617571059432
aF66.8733850129199
aF67.62273901808786
aF68.50129198966408
aF67.75193798449612
aF68.29457364341086
aF67.90697674418605
aF68.6046511627907
aF68.47545219638243
aF67.82945736434108
aF67.90697674418605
aF67.9328165374677
aF68.52713178294573
aF68.03617571059432
aF68.52713178294573
aF68.01033591731266
aF67.75193798449612
aF68.37209302325581
aF68.34625322997417
aF68.68217054263566
aF68.9405684754522
aF68.11369509043928
aF68.81136950904393
aF68.63049095607235
aF68.83720930232558
aF68.24289405684755
aF68.68217054263566
aF68.68217054263566
aF69.19896640826873
asS'training_avg_acc'
p6
(lp7
F16.882198138034465
aF46.42463001216786
aF63.785053340501996
aF71.8016921814426
aF76.50754124338549
aF78.8194346189762
aF80.54557287982117
aF81.82461303375874
aF83.05554769518096
aF84.41665015988002
aF84.73075072865673
aF85.10144599451031
aF85.93621777639436
aF86.33238065593254
aF86.46820792891707
aF86.92662497523982
aF87.23789580916268
aF87.62556948413933
aF87.99626474999293
aF88.05568918192365
aF88.12643255326977
aF88.2764085005235
aF88.75746342567702
aF88.38110869011574
aF88.83952573643849
aF89.23851835083053
aF89.34038880556892
aF89.18192365375364
aF89.55261891960723
aF89.69693539715328
aF89.9799088825377
aF89.79314638218399
aF90.09592801154531
aF90.12139562522992
aF90.18647952686834
aF90.08460907212994
aF90.22609581482214
aF90.42700698944509
aF90.64489657319109
aF90.54019638359885
aF90.38739070149127
aF90.45247460312969
aF90.67602365658338
aF91.0552081269985
aF90.90240244489091
aF90.99578369506777
aF91.17971646056765
aF91.04671892243697
aF91.32686267296754
aF91.29573558957526
aF91.13444070290613
aF91.13444070290613
aF91.28158691530604
aF91.41175471858287
aF91.3947763094598
aF91.56456040069045
aF91.72302555250573
aF91.06369733156004
aF91.41458445343672
aF91.6126658932058
aF91.55324146127508
aF91.58153880981352
aF91.51362517332126
aF91.78244998443645
aF91.72585528735958
aF91.87866096946716
aF91.83338521180565
aF91.89280964373638
aF92.00033956818245
aF92.07108293952857
aF92.05976400011319
aF92.08523161379779
aF92.00599903789015
aF92.2069102125131
aF92.0342963864286
aF92.38518350830527
aF92.07674240923626
aF92.11352896233623
aF92.22388862163615
aF92.23520756105152
aF92.16729392455927
aF92.06259373496704
aF92.1814425988285
aF92.3483969552053
aF92.48422422818982
aF92.50686210702057
aF92.42197006140525
aF92.55213786468208
aF92.16729392455927
aF92.50120263731289
aF92.33141854608223
aF92.53515945555901
aF92.55496759953593
aF92.48422422818982
aF92.39084297801296
aF92.71626248620504
aF92.52949998585133
aF92.5917541526359
aF92.88887631228954
aF92.57760547836668
asS'training_avg_loss'
p8
(lp9
F3.0508810272881743
aF1.7451104144396437
aF1.20438279465742
aF0.9420730476721583
aF0.7996240679694678
aF0.7112612853974113
aF0.6501565667033151
aF0.6047388922159901
aF0.5726052323128203
aF0.5390797066983365
aF0.5238318110960153
aF0.5041390150518111
aF0.48066735125285615
aF0.4691324167082382
aF0.4567714257246907
aF0.44024198000417364
aF0.4364429402254903
aF0.4303401132408368
aF0.4159258219054176
aF0.40556698217332326
aF0.4058580409624017
aF0.40278099090499314
aF0.3939996275055364
aF0.3891606964378602
aF0.3827323868776704
aF0.3707084281864391
aF0.3679574796254082
aF0.36658460617119404
aF0.359797190775197
aF0.3542489055165168
aF0.3497591906531112
aF0.3517378227641706
aF0.3489386403954303
aF0.34332823376221233
aF0.34078038724142967
aF0.3417573167707044
aF0.3385747004258295
aF0.33119252760357215
aF0.32460101266955577
aF0.32889830227864847
aF0.3228211074467915
aF0.3302166945474379
aF0.3195740620077066
aF0.3155631354096729
aF0.312868045625104
aF0.3106497886674123
aF0.30945855005510886
aF0.31047294560783284
aF0.3041287556734638
aF0.30446994593074717
aF0.3020317113447744
aF0.30381687196366547
aF0.2996124590444067
aF0.29442603823088803
aF0.2986115035016561
aF0.29334384216619047
aF0.2926544720519564
aF0.30355693190297306
aF0.298102511375693
aF0.28878905922330467
aF0.28870495272639407
aF0.2916450681027662
aF0.28849706619015714
aF0.28663643483425555
aF0.2849734091199434
aF0.28211893052087883
aF0.28477600186927443
aF0.27962996960428405
aF0.2803487542118213
aF0.27755205048146286
aF0.2669176083576659
aF0.2704348624597607
aF0.27442790131579836
aF0.27196943449911315
aF0.2769049124953979
aF0.26918864102432266
aF0.2747897291538344
aF0.26923044066757157
aF0.26568421598585734
aF0.2695463713470496
aF0.272361767258627
aF0.2682464504158285
aF0.26826067550224375
aF0.2656104084105459
aF0.2625033786960104
aF0.26363230129397275
aF0.26378108977515863
aF0.261805092270695
aF0.2653205175007667
aF0.2607618502085762
aF0.2655619617336833
aF0.2556288528194107
aF0.26092913891632996
aF0.25921536964054454
aF0.2617247572252566
aF0.2500487870974932
aF0.2591014968818961
aF0.25528820079346964
aF0.24689455332438007
aF0.2546024391999886
asS'validation_avg_loss'
p10
(lp11
F3.6368133012638535
aF3.419096210883877
aF3.011394137991183
aF2.80300582570315
aF2.6326752576409076
aF2.4969793709057555
aF2.4322680687719536
aF2.3419535013440353
aF2.1992040989010833
aF2.212473917623515
aF2.1181583946681455
aF2.0487367339220466
aF2.0573788807989706
aF2.0138211481947
aF1.9714912725049396
aF1.9379293589628943
aF1.9752704062203104
aF1.896808128701932
aF1.9834519083185713
aF1.8642524721702556
aF1.8271592970658335
aF1.826482567306637
aF1.7829612579148562
aF1.8392420672631078
aF1.8337680326259722
aF1.8326534241668937
aF1.758422783055663
aF1.8813500000216856
aF1.7868894914632003
aF1.8274251656938894
aF1.7001395794772363
aF1.7195339515843748
aF1.7290795828944954
aF1.7551682531371597
aF1.7092709248072109
aF1.7061685507919746
aF1.7629157001041935
aF1.7210082137923524
aF1.6354296480962471
aF1.6805452079427952
aF1.6359558924840094
aF1.620432075973629
aF1.636227975273625
aF1.718464794701076
aF1.6287958158695113
aF1.6301209293286623
aF1.6037168077720227
aF1.5681635788860864
aF1.6346642730772034
aF1.6439635902720213
aF1.5947062658709148
aF1.62507516395214
aF1.5858225698002857
aF1.557605243283649
aF1.6006709801134213
aF1.5582259629123896
aF1.5379162336196703
aF1.5756216216765018
aF1.550275808526564
aF1.5704869542627065
aF1.5407843202891585
aF1.577669093651981
aF1.5862106643597902
aF1.5694676241517376
aF1.542861653606405
aF1.4839489564723132
aF1.5097248984245675
aF1.532358745949521
aF1.4978911279091847
aF1.4687609916509583
aF1.48364515785099
aF1.4801882986566508
aF1.6359841834667117
aF1.5125242942987487
aF1.475788373602145
aF1.4855254836168708
aF1.4843751132334233
aF1.535157114713999
aF1.4856828289130553
aF1.4845124340796656
aF1.474518539985637
aF1.5402674119293844
aF1.5141549545357085
aF1.4530761294894747
aF1.4875846463580464
aF1.4552437708359356
aF1.5381671591322552
aF1.5184646496785088
aF1.4982424275203576
aF1.529308942922942
aF1.4282219470317357
aF1.4650327216747194
aF1.55334823864683
aF1.4799970954579593
aF1.4676624041811133
aF1.424987806522261
aF1.4915385215473422
aF1.5009975773419522
aF1.4646242030831271
aF1.4713464531171538
as.