ccollections
defaultdict
p0
(c__builtin__
list
p1
tp2
Rp3
S'validation_avg_acc'
p4
(lp5
F6.124031007751938
aF10.051679586563308
aF11.007751937984496
aF16.253229974160206
aF26.382428940568474
aF34.41860465116279
aF42.89405684754522
aF42.377260981912144
aF49.14728682170543
aF51.86046511627907
aF9.354005167958656
aF15.78811369509044
aF28.75968992248062
aF32.7906976744186
aF24.05684754521964
aF40.12919896640827
aF45.60723514211886
aF42.76485788113695
aF47.88113695090439
aF52.55813953488372
aF53.979328165374675
aF53.85012919896641
aF43.38501291989664
aF22.661498708010335
aF56.14987080103359
aF43.979328165374675
aF16.589147286821706
aF51.75710594315245
aF46.485788113695094
aF57.054263565891475
aF58.96640826873385
aF62.19638242894057
aF14.806201550387597
aF58.50129198966408
aF53.10077519379845
aF61.059431524547804
aF63.92764857881137
aF29.069767441860463
aF66.14987080103359
aF59.30232558139535
aF63.281653746770026
aF66.27906976744185
aF65.27131782945736
aF14.444444444444445
aF34.54780361757106
aF64.85788113695091
aF54.67700258397933
aF49.30232558139535
aF55.1937984496124
aF66.5891472868217
aF66.51162790697674
aF32.17054263565891
aF66.22739018087856
aF29.71576227390181
aF59.87080103359173
aF60.80103359173127
aF67.51937984496124
aF71.52454780361757
aF65.81395348837209
aF61.912144702842376
aF64.44444444444444
aF2.3255813953488373
aF2.3255813953488373
aF2.3255813953488373
aF2.3255813953488373
aF2.3255813953488373
aF2.3255813953488373
aF2.3255813953488373
aF2.3255813953488373
aF2.3255813953488373
aF2.3255813953488373
aF2.3255813953488373
aF2.3255813953488373
aF2.3255813953488373
aF2.3255813953488373
aF2.3255813953488373
aF2.3255813953488373
aF2.3255813953488373
aF2.3255813953488373
aF2.3255813953488373
aF2.3255813953488373
aF2.3255813953488373
aF2.3255813953488373
aF2.3255813953488373
aF2.3255813953488373
aF2.3255813953488373
aF2.3255813953488373
aF2.3255813953488373
aF2.3255813953488373
aF2.3255813953488373
aF2.3255813953488373
aF2.3255813953488373
aF2.3255813953488373
aF2.3255813953488373
aF2.3255813953488373
aF2.3255813953488373
aF2.3255813953488373
aF2.3255813953488373
aF2.3255813953488373
aF2.3255813953488373
asS'training_avg_acc'
p6
(lp7
F7.068677664902799
aF28.48128130394182
aF45.81623701859136
aF57.25402529782959
aF66.47896092136166
aF71.54701604459662
aF74.47862135317921
aF76.6235603723931
aF77.43852401030024
aF79.96830696963694
aF61.461841025495914
aF41.58578341209429
aF57.44078779818331
aF63.671863946348225
aF67.75234160559155
aF69.33982285859815
aF70.54246017148193
aF73.05809445654943
aF74.20696680721016
aF74.15886131469482
aF75.75483177226293
aF76.7763660545007
aF77.4300348057387
aF78.22802003452277
aF77.61962704094627
aF78.4798664365149
aF78.81660488412236
aF80.21166416706754
aF78.14595772376128
aF79.55516568097569
aF79.73060924191404
aF80.82854636520558
aF81.25017685842836
aF79.56648462039107
aF80.69271909222105
aF80.76346246356717
aF79.77305526472169
aF81.05492515351311
aF80.76063272871332
aF81.44259882848976
aF81.91516454908175
aF81.50485299527435
aF82.15003254195082
aF81.75669939726647
aF82.00571606440477
aF81.20490110076686
aF82.18964882990464
aF82.24624352698152
aF82.78389314921192
aF82.13871360253545
aF83.73468406010358
aF82.95933671015025
aF82.07928917060471
aF83.3073940971731
aF83.08101530886556
aF83.51962421121141
aF84.02331701519567
aF83.63281360536517
aF83.3583293245423
aF83.19703443787317
aF83.74600299951895
aF29.36415857834121
aF2.252468943659979
aF2.0940037918447043
aF2.5920371261212822
aF2.0119414810832223
aF1.847816859560259
aF1.9977928068140016
aF1.8930926172217664
aF2.4505503834290727
aF2.4364017091598518
aF2.1562579586292765
aF2.3317015195676167
aF2.034579359913976
aF1.6299272758142562
aF1.5620136393219954
aF1.380910608675967
aF2.52978295933671
aF3.036305498174821
aF3.2768329607515776
aF3.4437873171283853
aF3.5258496278898668
aF3.664506635728232
aF3.7720365601743118
aF3.51453068847449
aF3.33908712753615
aF3.7946744390050653
aF4.04086137128951
aF4.284218568720111
aF4.403067432581567
aF4.589829932935284
aF4.448343190243074
aF4.652084099719856
aF4.2898780384277995
aF4.366280879481592
aF4.437024250827697
aF4.431364781120009
aF4.425705311412321
aF4.258750955035513
aF4.312515917258553
asS'training_avg_loss'
p8
(lp9
F3.6368306395106123
aF2.7145812682470747
aF1.949467464073421
aF1.5216760170399366
aF1.1947230641271598
aF1.0139243123405788
aF0.9169866882272837
aF0.8484763352945626
aF0.8174715690328895
aF0.70410513664001
aF1.5178058519236297
aF2.0347583397475315
aF1.446110701357901
aF1.2299685345572025
aF1.0898261188047338
aF1.061939058233938
aF1.0063869063209714
aF0.9208214672741372
aF0.8782946902269445
aF0.8965364674659093
aF0.8332528005671381
aF0.7877612464641613
aF0.766142021554203
aF0.7372912004256499
aF0.7674401268232705
aF0.7405778415917088
aF0.7184635610760444
aF0.6660769297239443
aF0.7448039041512311
aF0.6926881017862777
aF0.685086035978754
aF0.6489424862971334
aF0.625479499021118
aF0.7186706993318703
aF0.6490843587842064
aF0.6535565493052127
aF0.7043844954517298
aF0.6308782194927682
aF0.6659622711602198
aF0.6199348000598455
aF0.6009882664875458
aF0.6154972612528922
aF0.6046329906488127
aF0.6117884092876869
aF0.6138344138110985
aF0.629002935423093
aF0.5919504940565455
aF0.5795150152771139
aF0.5767067333052932
aF0.6023753687388127
aF0.5487604477486575
aF0.5737646068038774
aF0.6067870283454716
aF0.551857446031331
aF0.5838203118212367
aF0.5536463808947925
aF0.5281676086350867
aF0.5491233105037312
aF0.5675978439429501
aF0.5732809050472643
aF0.5558885815437805
aF2.6954514861508296
aF3.7613396711653624
aF3.761328272518755
aF3.761250385509059
aF3.761289649505041
aF3.7612521602462543
aF3.7613138332543437
aF3.7610958440150184
aF3.7613278610292964
aF3.7612633836967992
aF3.761214467401655
aF3.761249358944329
aF3.7611353848920235
aF3.7612682436334213
aF3.7609154015696005
aF3.7606266746800574
aF3.7363018785140594
aF3.6792894631810595
aF3.653743288365132
aF3.637231042501885
aF3.6253260406284293
aF3.6180519151068284
aF3.6103305380009556
aF3.6066056804775184
aF3.60847657839826
aF3.600162766360883
aF3.5892303825392884
aF3.5715335607494954
aF3.5657483125745637
aF3.554735710221548
aF3.5550081196973906
aF3.5539419175867497
aF3.5474364266316902
aF3.547445859692896
aF3.543195538658579
aF3.5476226973956644
aF3.548674387594358
aF3.5448074540520076
aF3.5411796418700074
asS'validation_avg_loss'
p10
(lp11
F3.806500173169513
aF3.7959849355140705
aF3.7805612214159905
aF3.6054213393258188
aF3.1704929203950156
aF2.775608821740754
aF2.3900216371206042
aF2.3353441460188047
aF2.081234937367205
aF1.9577923557863064
aF3.560215132365855
aF3.4792247328647345
aF2.8931698210171644
aF2.704945418877811
aF3.2379225708717523
aF2.3880223700550482
aF2.113717242297584
aF2.2548607651269403
aF2.0334581892619763
aF1.88614497665287
aF1.8054821827614955
aF1.7518650658678947
aF2.4278445852511306
aF3.4465079078378604
aF1.7359668293048554
aF2.2476348788239235
aF3.873552412087295
aF1.9252939160172022
aF2.0452622253457395
aF1.7191536516490216
aF1.5881747709072223
aF1.5032464971222004
aF4.189959868596198
aF1.6347039599751316
aF1.8097303211843012
aF1.5350706041321274
aF1.3991218934071465
aF3.1007852677535026
aF1.3720571643622346
aF1.6068668136300968
aF1.4259211266687675
aF1.3288196356721627
aF1.3602805125312905
aF4.0238813316483215
aF2.740280156295737
aF1.3507326535168236
aF1.7587153272111287
aF2.168462713867503
aF1.756766923761491
aF1.3208643417949824
aF1.298403619179738
aF2.8324074501215026
aF1.3154025072891276
aF2.8858399610494767
aF1.547921089546933
aF1.5814402691153593
aF1.2579584991593078
aF1.1458073823026909
aF1.4113742995939822
aF1.5532762670393754
aF1.3765527552720496
aF3.761200189713668
aF3.761200189713668
aF3.761200189713668
aF3.761200189713668
aF3.761200189713668
aF3.761200189713668
aF3.761200189713668
aF3.761200189713668
aF3.761200189713668
aF3.761200189713668
aF3.761200189713668
aF3.761200189713668
aF3.761200189713668
aF3.761200189713668
aF3.761200189713668
aF3.761200189713668
aF3.7612001818279888
aF3.7612002173135446
aF3.7612002449134216
aF3.7612002015421866
aF3.7612001542281117
aF3.7612001581709515
aF3.7612002173135446
aF3.761200189713668
aF3.7612002449134216
aF3.761200225199224
aF3.7612002370277424
aF3.7612001660566303
aF3.761200233084903
aF3.761200205485026
aF3.761200225199224
aF3.7612001502852723
aF3.761200225199224
aF3.761200205485026
aF3.761200189713668
aF3.761200229142063
aF3.76120016999947
aF3.761200185770828
aF3.7612001305710745
as.