ccollections
defaultdict
p0
(c__builtin__
list
p1
tp2
Rp3
S'validation_avg_acc'
p4
(lp5
F14.1343669250646
aF16.589147286821706
aF15.65891472868217
aF17.157622739018088
aF19.53488372093023
aF21.93798449612403
aF28.785529715762273
aF31.782945736434108
aF34.44444444444444
aF31.421188630490956
aF35.71059431524548
aF35.94315245478036
aF35.1937984496124
aF36.020671834625325
aF35.21963824289406
aF35.81395348837209
aF32.53229974160207
aF36.12403100775194
aF33.41085271317829
aF32.7906976744186
aF35.736434108527135
aF33.43669250645995
aF34.44444444444444
aF31.989664082687337
aF31.963824289405686
aF34.10852713178294
aF33.333333333333336
aF34.57364341085271
aF36.304909560723516
aF40.46511627906977
aF36.35658914728682
aF35.1937984496124
aF37.49354005167959
aF37.72609819121447
aF35.633074935400515
aF39.328165374677006
aF37.02842377260982
aF32.48062015503876
aF34.72868217054263
aF33.77260981912145
aF33.41085271317829
aF36.640826873385016
aF36.22739018087855
aF33.15245478036176
aF34.263565891472865
aF38.91472868217054
aF37.51937984496124
aF35.60723514211886
aF33.10077519379845
aF35.633074935400515
aF34.62532299741602
aF36.04651162790697
aF35.55555555555556
aF35.27131782945737
aF35.03875968992248
aF36.04651162790697
aF34.54780361757106
aF35.8656330749354
aF35.81395348837209
aF35.24547803617571
aF34.00516795865633
aF36.84754521963824
aF34.41860465116279
aF35.81395348837209
aF36.35658914728682
aF34.082687338501295
aF34.082687338501295
aF35.968992248062015
aF36.485788113695094
aF35.47803617571059
aF36.35658914728682
aF35.60723514211886
aF36.770025839793284
aF37.49354005167959
aF39.405684754521964
aF35.5297157622739
aF34.651162790697676
aF38.52713178294574
aF35.99483204134367
aF39.638242894056845
aF42.27390180878553
aF45.78811369509044
aF35.58139534883721
aF38.16537467700258
aF37.13178294573643
aF37.08010335917313
aF38.11369509043928
aF37.64857881136951
aF37.18346253229974
aF35.633074935400515
aF37.10594315245478
aF34.263565891472865
aF34.70284237726098
aF33.95348837209303
aF36.56330749354005
aF38.29457364341085
aF37.88113695090439
aF35.400516795865634
aF35.89147286821706
aF36.04651162790697
asS'training_avg_acc'
p6
(lp7
F27.5644472112963
aF63.3181470896177
aF75.35866889272475
aF79.94566909080619
aF82.6933416338889
aF84.33458784911853
aF86.92662497523982
aF89.60638388183027
aF91.98902062876708
aF93.43784487393532
aF94.18206514049633
aF94.94609355103427
aF95.26019411981098
aF95.35923483969552
aF95.6139109765415
aF95.87424658309516
aF96.17136874274881
aF96.27606893234103
aF96.34115283397945
aF96.63827499363309
aF96.49961798579473
aF96.75712385749455
aF96.81088881971759
aF96.85333484252526
aF96.79956988030222
aF96.66091287246385
aF96.79956988030222
aF97.00048105492516
aF96.9325674184329
aF96.67223181187923
aF97.01462972919437
aF97.11084071422508
aF97.12781912334815
aF96.94388635784827
aF96.92124847901752
aF96.98350264580209
aF97.20422196440194
aF97.22403010837884
aF97.18724355527887
aF97.13630832790967
aF97.37117632077874
aF97.40230340417104
aF97.43908995727101
aF97.38532499504797
aF97.50417385890943
aF97.33438976767877
aF97.33721950253262
aF97.53813067715555
aF97.55793882113247
aF97.52681173774018
aF97.58057669996322
aF97.60604431364781
aF97.52115226803248
aF97.47021704066329
aF97.5862361696709
aF97.5607685559863
aF97.74470132148618
aF97.58906590452474
aF97.54661988171708
aF97.64566060160163
aF97.63434166218626
aF97.49851438920173
aF97.62585245762472
aF97.55227935142477
aF97.79280681400152
aF97.63717139704009
aF97.73621211692465
aF97.6117037833555
aF97.60604431364781
aF97.7390418517785
aF97.72489317750927
aF97.64000113189394
aF97.37117632077874
aF97.70508503353236
aF97.66829848043238
aF97.69093635926313
aF97.64849033645548
aF97.74187158663233
aF97.68527688955545
aF97.69942556382468
aF97.61736325306319
aF97.53247120744786
aF97.58340643481706
aF97.62019298791704
aF97.73055264721695
aF97.70508503353236
aF97.87203938990916
aF97.74187158663233
aF97.70508503353236
aF97.80695548827075
aF97.82959336710151
aF97.85223124593226
aF97.7588499957554
aF97.68810662440929
aF97.77016893517077
aF97.79846628370922
aF97.83242310195534
aF97.84657177622456
aF97.84657177622456
aF97.86920965505531
asS'training_avg_loss'
p8
(lp9
F2.6225223140780782
aF1.3339804236973016
aF0.9241397722949635
aF0.7527996287651778
aF0.6488472499117158
aF0.5804195058895981
aF0.5160195609096248
aF0.4397615836024834
aF0.3618151772193949
aF0.3059331229568361
aF0.26960762136945055
aF0.2396312603545299
aF0.2238751733818174
aF0.2101105460320727
aF0.2032892541753952
aF0.19082439926390554
aF0.17670106636843355
aF0.17479747796072823
aF0.1698440598687257
aF0.1566750403423963
aF0.15973065083559665
aF0.15218651246469964
aF0.14520548874171663
aF0.14402131641109114
aF0.14498792371596325
aF0.14703803827639883
aF0.14088594037434887
aF0.1353052479392513
aF0.1343235464559427
aF0.14631945131090793
aF0.13949200421501737
aF0.1288339891195965
aF0.13096562548854118
aF0.13420785590321077
aF0.13604470058850168
aF0.13163011083309023
aF0.12746070682734295
aF0.12302323165444932
aF0.12523649691415462
aF0.12525601066424846
aF0.12096991555598134
aF0.11613071788237427
aF0.11485915062042222
aF0.11489202566100164
aF0.11126183594537141
aF0.11660000682804796
aF0.11884594117445837
aF0.1120993513186478
aF0.10912933754136328
aF0.10810817332032845
aF0.10896209962886354
aF0.10596967598265185
aF0.108961059469707
aF0.1127722283306158
aF0.10665540218339778
aF0.10716603149659747
aF0.10170957757370214
aF0.10464153362928214
aF0.10830861648641177
aF0.10377753215058894
aF0.1032486940173039
aF0.10662302363960868
aF0.10327501885166847
aF0.10399519811917547
aF0.09868617417259867
aF0.10396785673205546
aF0.09712718667824519
aF0.10435278625702014
aF0.10253655578221223
aF0.09841194549263048
aF0.09840307637411148
aF0.10516925964402965
aF0.10997563556181177
aF0.10486181604258053
aF0.10260631381063753
aF0.09981143318394751
aF0.09998067734368929
aF0.09932903923140023
aF0.10188384998458301
aF0.09941316686545133
aF0.10137117785749541
aF0.10633315680849353
aF0.11041155029845671
aF0.10250822408666378
aF0.09796416479843832
aF0.09940218986195597
aF0.09324488414764512
aF0.09723319766874909
aF0.10298187909660209
aF0.09814402640764862
aF0.09717369360923632
aF0.09526711958886785
aF0.09639488095294546
aF0.09794536172987775
aF0.09665900966895045
aF0.09625368771493265
aF0.09690791963704484
aF0.09255524087651833
aF0.09174991115460071
aF0.08981875873501878
asS'validation_avg_loss'
p10
(lp11
F3.823760107074905
aF3.871356764997931
aF3.793527909705189
aF3.7155541156305514
aF3.603589409327938
aF3.4964619836141897
aF3.230139503183291
aF3.132915542168827
aF3.026062441488261
aF3.1457554090238666
aF3.0134274987903367
aF2.9252748908306585
aF2.936340887971627
aF2.9147365175784405
aF2.9810251398604044
aF2.9268396934489562
aF3.1175336408984755
aF2.959330412891792
aF3.0946354296780374
aF3.20152332986048
aF2.977546009783289
aF3.11272762899867
aF3.154365086617088
aF3.2190445729928423
aF3.26545848994292
aF3.0362286461724177
aF3.1354072910870694
aF3.1261006727391125
aF3.004786208495305
aF2.7713747798318393
aF3.0561085274669244
aF3.088649497906983
aF3.0804238681645355
aF2.976655477085163
aF3.1090949465138045
aF2.9024171385654185
aF3.104536811572329
aF3.228379758691911
aF3.1759133380820894
aF3.204985342099685
aF3.203399579346334
aF3.055374472763495
aF3.1049928576447243
aF3.2266233035144265
aF3.1479010342935565
aF3.0027334730754527
aF3.0034659432502373
aF3.138482474295052
aF3.192573569048899
aF3.1115728028368888
aF3.1466047715771106
aF3.1439862169960673
aF3.121941597024292
aF3.217969517868003
aF3.1814333208463603
aF3.1211907970812893
aF3.179914471530175
aF3.2242231171876576
aF3.1473220366840216
aF3.2184067058316805
aF3.22584241773423
aF3.0736026694916325
aF3.221944518668399
aF3.1268081980466227
aF3.1333646113866367
aF3.267797668220461
aF3.259865856909937
aF3.1261458497946886
aF3.10824699253999
aF3.1798283973713564
aF3.081556573517871
aF3.172723413314622
aF3.18961752169508
aF3.093823960770008
aF2.9814759030206566
aF3.1710193348177333
aF3.2601122291821225
aF3.0688715469005494
aF3.1603021597061356
aF3.011323754362358
aF2.838949404083173
aF2.6858759473460587
aF3.2339824025945147
aF3.0313577351336023
aF3.0971923473269443
aF3.1464129356758845
aF3.071816292104795
aF3.1754976139512174
aF3.1561334930341065
aF3.2564092759322136
aF3.1669851712170187
aF3.376298485492243
aF3.332934288399472
aF3.45687168131195
aF3.2534328598692746
aF3.1558430891012343
aF3.116858033862841
aF3.233779797812765
aF3.200318938262703
aF3.216041574798505
as.