ccollections
defaultdict
p0
(c__builtin__
list
p1
tp2
Rp3
S'validation_avg_acc'
p4
(lp5
F2.8940568475452197
aF3.204134366925065
aF4.547803617571059
aF4.444444444444445
aF6.227390180878553
aF7.209302325581396
aF7.493540051679586
aF9.198966408268733
aF11.317829457364342
aF14.160206718346254
aF17.39018087855297
aF20.25839793281654
aF23.126614987080103
aF27.72609819121447
aF29.612403100775193
aF35.16795865633075
aF37.72609819121447
aF42.60981912144703
aF48.52713178294574
aF47.9328165374677
aF53.90180878552972
aF57.51937984496124
aF62.11886304909561
aF61.343669250645995
aF66.02067183462532
aF70.62015503875969
aF70.85271317829458
aF74.54780361757106
aF76.09819121447029
aF75.16795865633075
aF76.35658914728683
aF74.65116279069767
aF80.02583979328165
aF80.671834625323
aF81.13695090439276
aF78.19121447028424
aF80.15503875968992
aF81.62790697674419
aF83.7467700258398
aF83.7984496124031
aF80.23255813953489
aF84.98708010335918
aF85.55555555555556
aF83.92764857881137
aF86.5891472868217
aF83.90180878552971
aF85.8656330749354
aF86.74418604651163
aF86.35658914728683
aF86.09819121447029
aF85.14211886304909
aF85.76227390180878
aF86.51162790697674
aF87.20930232558139
aF88.16537467700259
aF88.42377260981912
aF88.39793281653746
aF88.06201550387597
aF87.9328165374677
aF88.08785529715762
aF87.31266149870801
aF89.14728682170542
aF87.77777777777777
aF88.86304909560724
aF88.68217054263566
aF86.74418604651163
aF86.64082687338501
aF84.75452196382429
aF88.2687338501292
aF85.37467700258398
aF88.91472868217055
aF89.7157622739018
aF90.02583979328165
aF89.74160206718346
aF90.18087855297158
aF90.2842377260982
aF89.09560723514213
aF90.0
aF89.87080103359173
aF90.3359173126615
aF89.87080103359173
aF89.328165374677
aF90.49095607235142
aF89.87080103359173
aF89.68992248062015
aF90.80103359173127
aF90.90439276485787
aF88.9922480620155
aF90.10335917312662
aF90.7751937984496
aF91.0077519379845
aF91.16279069767442
aF90.15503875968992
aF90.43927648578811
aF90.7751937984496
aF90.72351421188631
aF91.31782945736434
aF91.44702842377261
aF90.95607235142118
aF89.94832041343669
asS'training_avg_acc'
p6
(lp7
F2.733523868813492
aF5.560428987803843
aF6.963977475310563
aF7.578029938594754
aF8.494864031240272
aF10.022920852316139
aF12.139562522991596
aF15.362630521520133
aF19.109199468009848
aF24.262146636860127
aF29.3443504343643
aF33.60310138939981
aF38.09955007215824
aF41.6055915560712
aF45.12012224454568
aF48.51297433430488
aF51.931294037748664
aF55.07795919522341
aF57.92184272333682
aF60.89872378958091
aF64.08500523500948
aF66.13373326919267
aF68.23339653074507
aF70.0019808143977
aF72.2685984323269
aF73.46557627550298
aF75.08135487704801
aF76.46226548572399
aF77.9676844279691
aF78.90149692973769
aF80.00226378788308
aF80.9898412518747
aF81.9632700415971
aF82.69051189903506
aF83.2309912561193
aF83.84504371940349
aF84.41099069017233
aF84.9599592518181
aF85.52024675287926
aF86.25597781487875
aF86.77098955827839
aF87.06245224822435
aF87.38504202156258
aF87.48408274144712
aF88.11794334870822
aF88.59899827386174
aF88.7376552817001
aF89.02345850193836
aF89.14796683550752
aF89.72806248054557
aF89.94595206429157
aF90.24307422394521
aF90.4213475197374
aF90.5175585047681
aF90.78072384617562
aF90.69866153541413
aF91.11180282407538
aF91.28158691530604
aF91.22216248337531
aF91.3438410820906
aF91.33252214267523
aF91.82772574209797
aF92.01731797730552
aF92.06259373496704
aF91.94374487110558
aF92.33707801578993
aF92.13616684116698
aF92.61439203146665
aF92.26350490958997
aF92.6426893800051
aF92.78134638784346
aF92.86906816831262
aF93.12940377486629
aF93.11525510059707
aF93.20297688106625
aF93.11808483545092
aF93.30201760095079
aF93.50009904071989
aF93.28786892668157
aF93.8849429808427
aF93.5651829423583
aF93.42652593451993
aF93.84249695803503
aF93.54820453323524
aF93.94153767791958
aF93.94436741277342
aF94.08868389031947
aF94.06321627663488
aF94.30374373921164
aF94.12264070856561
aF94.32638161804239
aF94.12264070856561
aF94.33487082260392
aF94.29242479979627
aF94.17074620108096
aF94.53012252751917
aF94.56973881547299
aF94.40278445909618
aF94.57256855032684
aF94.68292820962675
asS'training_avg_loss'
p8
(lp9
F3.7632145625416444
aF3.656199941314263
aF3.5561138519984006
aF3.488082654630191
aF3.439430312162587
aF3.390668890553745
aF3.3143628839152606
aF3.215133485103484
aF3.072465109141702
aF2.8753511312845226
aF2.6601854748729803
aF2.4663560671873666
aF2.2785371591328407
aF2.1139338924131943
aF1.9631541651076987
aF1.8220838788389644
aF1.693852752533991
aF1.5752132915236785
aF1.4597222893741162
aF1.3559941733010628
aF1.2501161840270394
aF1.1733314811334994
aF1.094557441465957
aF1.024670010940231
aF0.9512152191320142
aF0.9063899159691202
aF0.8447075366042844
aF0.803630481946549
aF0.751265852367464
aF0.7172846384339105
aF0.6802397540707301
aF0.6500989658432679
aF0.6222524109557063
aF0.5898374548157804
aF0.5743164619338502
aF0.5440063982558523
aF0.5289602562481129
aF0.5170887193728655
aF0.491936757921508
aF0.46509591291532265
aF0.45147690103341387
aF0.44100542517164987
aF0.42923559670658934
aF0.4263336538185662
aF0.4080564907867592
aF0.3895245601610119
aF0.38608463013791827
aF0.37594744206122527
aF0.36753304442726814
aF0.35236546916951417
aF0.3454096350417133
aF0.33589958459811003
aF0.3313316652968371
aF0.3272344552855658
aF0.31818607185148634
aF0.31735210761901406
aF0.30597261080545823
aF0.303181006341094
aF0.29877927586064784
aF0.2971011038772953
aF0.28763441404431006
aF0.2848736127135527
aF0.2734315339965527
aF0.27208458598856106
aF0.27286686912525177
aF0.2615574333136729
aF0.2665758549470496
aF0.25489756591372864
aF0.26224518265518143
aF0.24783904546590163
aF0.24754087657588977
aF0.23964340992959424
aF0.2330569806873854
aF0.23212304641430073
aF0.23176521022033938
aF0.23439443293240916
aF0.2291340758198776
aF0.2213426875307097
aF0.22345885741198004
aF0.21237004495118403
aF0.21479813135514597
aF0.22397635577709268
aF0.20791685745487318
aF0.21450227048165724
aF0.20872918742092786
aF0.20263634201002909
aF0.20536785057642223
aF0.20549730440396305
aF0.19575359534655967
aF0.1971160956870862
aF0.19102667867395232
aF0.2005863966940889
aF0.19411329448707185
aF0.19232030641331313
aF0.19510024829679806
aF0.18235834472963167
aF0.18479182157795046
aF0.1900381844601137
aF0.18927353316167297
aF0.17982045796721774
asS'best_val_acc'
p10
(lp11
I98
aF91.44702842377261
asS'validation_avg_loss'
p12
(lp13
F3.775813275714253
aF3.843194463764358
aF3.904370247301205
aF3.9352145645969596
aF3.9675623220990794
aF3.952998793648811
aF3.9432810938635536
aF3.861815905509377
aF3.715253140944843
aF3.555191598936569
aF3.375237262341403
aF3.1888214446469485
aF3.0147202962436723
aF2.835560698595466
aF2.674084055947395
aF2.4769249596953085
aF2.298153039558913
aF2.1321161128445807
aF1.9975225265327967
aF1.8960170861978556
aF1.7010810983658453
aF1.5443359036085218
aF1.3806085744030407
aF1.3097112877963433
aF1.206622458640149
aF1.0813126101897361
aF1.0378304764743924
aF0.939065188219535
aF0.8959158040255847
aF0.9901468382768083
aF0.9247872865381013
aF0.9320257636783428
aF0.7623817568428295
aF0.7340060744810012
aF0.7071586178312468
aF0.843825781753513
aF0.7078638740345952
aF0.6698675948597048
aF0.628167938956755
aF0.6051227850699917
aF0.7838540855554493
aF0.5691021942764578
aF0.5470432677686464
aF0.6213220798384004
aF0.5239458576318848
aF0.6389461748862701
aF0.5217643667231446
aF0.5069441717469376
aF0.5415258134378347
aF0.5181339713445208
aF0.5543577196946469
aF0.5755398686699694
aF0.4797411792871882
aF0.5430904904574165
aF0.4822018243459075
aF0.49907676257446976
aF0.48302701945851007
aF0.47427857793279193
aF0.468812350235285
aF0.5033594255415645
aF0.544149115729177
aF0.44556712694484163
aF0.48467627609508396
aF0.493398935860805
aF0.5111619749339898
aF0.4866250702813785
aF0.6126340768394753
aF0.6212522408255383
aF0.4984450423023639
aF0.7188816675153448
aF0.501861148458263
aF0.46058500297803756
aF0.46389387425905193
aF0.47174944800958857
aF0.47077427194522964
aF0.4367486644790746
aF0.48364807028526163
aF0.44698585960155207
aF0.460241748831576
aF0.47200508687171566
aF0.4345833223667679
aF0.47034098136926716
aF0.44901330249636695
aF0.49131604324238437
aF0.5368081257981263
aF0.48309192061457723
aF0.47922043385769564
aF0.5769541598743578
aF0.516685203212862
aF0.5075821273965964
aF0.4666331544618341
aF0.4737629439410828
aF0.48286524114793616
aF0.47260476083845776
aF0.5023761116598998
aF0.48337771738481555
aF0.4450736076611319
aF0.45771682225769383
aF0.43609394667897544
aF0.5341642737530031
as.