ccollections
defaultdict
p0
(c__builtin__
list
p1
tp2
Rp3
S'validation_avg_acc'
p4
(lp5
F5.7881136950904395
aF8.087855297157622
aF10.775193798449612
aF11.52454780361757
aF13.126614987080103
aF15.478036175710594
aF17.080103359173126
aF19.844961240310077
aF24.26356589147287
aF25.8656330749354
aF27.958656330749353
aF29.74160206718346
aF33.1266149870801
aF35.58139534883721
aF36.56330749354005
aF38.81136950904393
aF40.74935400516796
aF41.343669250645995
aF42.53229974160207
aF44.935400516795866
aF46.485788113695094
aF48.29457364341085
aF50.12919896640827
aF51.576227390180875
aF54.031007751937985
aF55.55555555555556
aF58.036175710594314
aF59.71576227390181
aF60.90439276485788
aF62.19638242894057
aF62.58397932816538
aF62.97157622739018
aF64.4186046511628
aF66.51162790697674
aF67.6485788113695
aF70.07751937984496
aF70.74935400516796
aF71.91214470284238
aF73.0749354005168
aF74.16020671834626
aF74.57364341085271
aF75.03875968992249
aF76.40826873385014
aF77.10594315245478
aF77.2609819121447
aF78.06201550387597
aF78.16537467700259
aF79.56072351421189
aF78.6046511627907
aF80.72351421188631
aF82.17054263565892
aF83.04909560723515
aF83.77260981912144
aF84.70284237726098
aF86.02067183462532
aF86.2532299741602
aF85.89147286821705
aF85.83979328165374
aF86.56330749354005
aF86.74418604651163
aF87.20930232558139
aF86.95090439276485
aF87.59689922480621
aF86.5374677002584
aF88.2687338501292
aF88.9922480620155
aF87.80361757105943
aF88.19121447028424
aF88.52713178294573
aF88.83720930232558
aF88.88888888888889
aF88.91472868217055
aF88.44961240310077
aF90.3875968992248
aF90.10335917312662
aF89.27648578811369
aF90.02583979328165
aF89.40568475452196
aF89.87080103359173
aF90.56847545219638
aF90.43927648578811
aF89.97416020671835
aF89.94832041343669
aF90.41343669250647
aF89.97416020671835
aF90.10335917312662
aF91.16279069767442
aF90.56847545219638
aF91.13695090439276
aF90.95607235142118
aF91.03359173126616
aF91.49870801033592
aF91.18863049095607
aF91.86046511627907
aF91.7312661498708
aF91.08527131782945
aF91.57622739018088
aF91.93798449612403
aF91.83462532299741
aF91.26614987080103
aF91.78294573643412
aF92.0671834625323
aF92.60981912144703
aF92.19638242894057
aF92.22222222222223
aF92.14470284237726
aF92.76485788113695
aF93.20413436692506
aF91.80878552971576
aF92.91989664082688
aF93.95348837209302
aF92.58397932816537
aF93.15245478036175
aF92.50645994832041
aF93.17829457364341
aF93.17829457364341
aF93.69509043927648
aF93.95348837209302
aF93.43669250645995
aF93.5142118863049
aF93.7467700258398
aF93.7984496124031
aF93.82428940568475
aF93.90180878552971
aF93.95348837209302
aF94.00516795865633
aF94.1343669250646
aF94.08268733850129
aF93.97932816537468
aF94.4702842377261
aF94.34108527131782
aF94.21188630490956
aF94.36692506459949
aF94.21188630490956
aF94.4186046511628
aF94.96124031007751
aF94.26356589147287
aF94.49612403100775
aF93.87596899224806
aF94.31524547803618
aF94.57364341085271
aF94.36692506459949
aF94.54780361757106
aF93.97932816537468
aF94.62532299741602
aF95.1937984496124
aF95.4780361757106
aF95.09043927648578
aF95.06459948320413
aF95.11627906976744
asS'validation_avg_loss'
p6
(lp7
F3.7183911503439417
aF3.6664438844035145
aF3.5798029719705116
aF3.479178877640756
aF3.3820789149873325
aF3.2914572516153027
aF3.189758121874905
aF3.0687405391564972
aF2.9834710377439357
aF2.9094488262206086
aF2.809159544518444
aF2.7502146598904633
aF2.6526448784564507
aF2.5704961567270046
aF2.5019819774676972
aF2.3886397076515573
aF2.3232795608136083
aF2.262279313972138
aF2.177050671959416
aF2.1112993804675355
aF2.026824039205408
aF1.976971167248965
aF1.8783396229879492
aF1.8620500354495775
aF1.7856210665493357
aF1.692124314456023
aF1.6402970116267832
aF1.5512775774457965
aF1.5156536932447469
aF1.436278926525313
aF1.3832319344044963
aF1.3566541015639786
aF1.291361066691327
aF1.2355774309284002
aF1.1843686052687101
aF1.139050045617175
aF1.121575683647964
aF1.0413630628154567
aF1.0057450775028198
aF0.9764737093171408
aF0.9091957059633516
aF0.8944365124061742
aF0.8395960800484478
aF0.8101487715268936
aF0.7787966838948794
aF0.7476112739214293
aF0.7256520729579359
aF0.6769388854811665
aF0.6742290682339853
aF0.6305405039272876
aF0.6050914525061615
aF0.5790877444568531
aF0.5645497655914735
aF0.5636874946050866
aF0.5583709810208288
aF0.5407919661558259
aF0.5291698128909104
aF0.5291171004220805
aF0.5074524244173244
aF0.5178640631280204
aF0.507418432246499
aF0.5160584522233145
aF0.48406381618606953
aF0.5003756881376261
aF0.4839533004495833
aF0.474821515092554
aF0.46575159091281026
aF0.4737382354816417
aF0.4573550842991171
aF0.4657661597858104
aF0.44276498829517563
aF0.44963077426495784
aF0.45240472237115065
aF0.4134586681845268
aF0.4151088421504935
aF0.43984299843086444
aF0.40936770397563316
aF0.4147471847460251
aF0.417039302846258
aF0.403089784251319
aF0.4052457203236661
aF0.43127292184019583
aF0.4101912106153885
aF0.3988029152848
aF0.40359596416777727
aF0.39851859360163217
aF0.38783699722253073
aF0.38895686048176864
aF0.397277697936201
aF0.3853226138947854
aF0.37475841450444797
aF0.3835106259091572
aF0.38084767431559796
aF0.3759381348695558
aF0.37785535613387744
aF0.3845046973313164
aF0.36401773643817087
aF0.3615888150933485
aF0.36669404633362473
aF0.3661034038247064
aF0.37368801829118753
aF0.36178441984862936
aF0.3420392277551868
aF0.3735616002472488
aF0.35231807858752956
aF0.3602345492565663
aF0.3371224459366589
aF0.32659681936105095
aF0.3554458499339816
aF0.34170444501847874
aF0.32533700701802276
aF0.3359828907312965
aF0.3415579910118142
aF0.34660829121213244
aF0.3243870197648534
aF0.3246061950228935
aF0.32765724189213696
aF0.30614967651530445
aF0.3316500132667618
aF0.315059696118653
aF0.31790945765584017
aF0.3023354094350369
aF0.30951062353852493
aF0.3075116837710065
aF0.32829190166113603
aF0.29898712253847787
aF0.2944010636795707
aF0.28710232445204903
aF0.29634031287228413
aF0.28851344747906815
aF0.2942647959218777
aF0.29613894173726246
aF0.28371264964573145
aF0.2857846817227913
aF0.2777840181684617
aF0.2770272164073717
aF0.28528809316783604
aF0.2928097614676761
aF0.29666464316444496
aF0.28061158097606603
aF0.2864370531814043
aF0.2869287461966507
aF0.2831077577300774
aF0.28943213793696976
aF0.27756465972239963
aF0.2694410752803472
aF0.26915470779866213
aF0.2535184900813017
aF0.2587341357224671
aF0.2610288552843631
asS'lr'
p8
(lp9
F0.001
aF0.001
aF0.001
aF0.001
aF0.001
aF0.001
aF0.001
aF0.001
aF0.001
aF0.001
aF0.001
aF0.001
aF0.001
aF0.001
aF0.001
aF0.001
aF0.001
aF0.001
aF0.001
aF0.001
aF0.001
aF0.001
aF0.001
aF0.001
aF0.001
aF0.001
aF0.001
aF0.001
aF0.001
aF0.001
aF0.001
aF0.001
aF0.001
aF0.001
aF0.001
aF0.001
aF0.001
aF0.001
aF0.001
aF0.001
aF0.001
aF0.001
aF0.001
aF0.001
aF0.001
aF0.001
aF0.001
aF0.001
aF0.001
aF0.001
aF0.0005
aF0.0005
aF0.0005
aF0.0005
aF0.0005
aF0.00025
aF0.00025
aF0.00025
aF0.00025
aF0.00025
aF0.00025
aF0.00025
aF0.00025
aF0.00025
aF0.00025
aF0.00025
aF0.00025
aF0.00025
aF0.00025
aF0.00025
aF0.00025
aF0.00025
aF0.00025
aF0.00025
aF0.000125
aF0.000125
aF0.000125
aF0.000125
aF0.000125
aF0.000125
aF0.000125
aF0.000125
aF0.000125
aF0.000125
aF0.000125
aF0.000125
aF0.000125
aF0.000125
aF0.000125
aF0.000125
aF0.000125
aF0.000125
aF0.000125
aF0.000125
aF0.000125
aF0.000125
aF0.000125
aF0.000125
aF0.000125
aF0.000125
aF0.000125
aF0.000125
aF0.000125
aF0.000125
aF0.000125
aF0.000125
aF0.000125
aF0.000125
aF0.000125
aF0.000125
aF0.000125
aF0.000125
aF0.000125
aF0.000125
aF0.000125
aF0.000125
aF0.000125
aF0.000125
aF0.000125
aF0.000125
aF0.000125
aF0.000125
aF0.000125
aF0.000125
aF0.000125
aF0.000125
aF0.000125
aF0.000125
aF0.000125
aF0.000125
aF0.000125
aF0.000125
aF0.000125
aF0.000125
aF0.000125
aF0.000125
aF0.000125
aF0.000125
aF0.000125
aF0.000125
aF0.000125
aF0.000125
aF0.000125
aF0.000125
aF0.000125
aF0.000125
aF0.000125
aF0.000125
aF0.000125
aF0.000125
asS'training_avg_acc'
p10
(lp11
F5.266136563004046
aF12.70267975890659
aF19.3044511729251
aF25.105407623305695
aF30.170633011686807
aF34.44919211069923
aF38.62305102011941
aF42.140411443447746
aF46.00582925379892
aF50.2051557769037
aF53.74515407906279
aF56.84088400916834
aF60.046973598573814
aF62.88802739183338
aF65.61589179093919
aF68.21075865191432
aF70.41512210305895
aF72.47233934180367
aF73.98058801890262
aF75.69257760547836
aF77.02255298678514
aF78.4345906788534
aF79.41933840799118
aF80.57952969806729
aF81.64633973796656
aF82.92255015705028
aF83.93276549987266
aF85.0618297065565
aF86.09185319335579
aF86.97190073290133
aF87.4699340671779
aF88.00475395455446
aF88.59899827386174
aF89.05175585047681
aF89.52149183621495
aF89.94878179914542
aF90.57981267155267
aF90.99012422536008
aF91.55890093098277
aF91.88715017402869
aF92.37669430374373
aF92.72475169076658
aF93.04168199439712
aF93.35578256317383
aF93.58216135148136
aF93.80005093522738
aF94.12264070856561
aF94.34053029231161
aF94.45371968646538
aF94.78479866436516
aF95.12436684682645
aF95.11021817255723
aF95.30264014261864
aF95.39602139279549
aF95.5375081354877
aF95.69597328730298
aF95.7355895752568
aF95.74124904496449
aF96.01290359093353
aF95.86575737853363
aF95.96762783327202
aF96.10911457596423
aF96.20532556099494
aF96.13175245479499
aF96.17985794731034
aF96.19683635643341
aF96.36096097795637
aF96.30436628087948
aF96.43736381901016
aF96.51942612977165
aF96.71184809983305
aF96.58451003141006
aF96.6892102210023
aF96.84201590310988
aF96.71750756954073
aF96.8306969636945
aF96.81937802427913
aF96.82786722884066
aF96.89012139562523
aF96.95520529726365
aF96.95520529726365
aF96.85333484252526
aF97.09669203995585
aF96.96369450182517
aF97.18724355527887
aF97.1504570021789
aF97.18158408557119
aF97.17309488100965
aF97.10801097937123
aF97.22685984323269
aF97.25515719177113
aF97.21837063867116
aF97.1759246158635
aF97.17875435071734
aF97.3230708282634
aF97.28911401001726
aF97.37400605563259
aF97.47021704066329
aF97.49851438920173
aF97.55510908627862
aF97.43343048756331
aF97.45889810124791
aF97.50700359376326
aF97.43343048756331
aF97.5098333286171
aF97.63434166218626
aF97.55227935142477
aF97.57491723025552
aF97.63717139704009
aF97.67961741984776
aF97.76733920031693
aF97.78148787458615
aF97.70508503353236
aF97.7333823820708
aF97.67961741984776
aF97.76167973060925
aF97.7333823820708
aF97.82676363224766
aF97.80129601856306
aF97.75036079119387
aF97.86072045049379
aF97.8041257534169
aF97.9512719658168
aF97.88618806417838
aF97.83808257166304
aF97.82959336710151
aF97.93429355669373
aF97.9767395795014
aF97.90882594300913
aF97.99937745833215
aF97.92297461727836
aF97.9003367384476
aF98.10124791307055
aF98.1493534055859
aF98.13803446617052
aF98.17765075412434
aF98.03333427657829
aF98.04465321599366
aF98.1691615495628
aF98.12671552675515
aF98.1182263221936
aF98.10124791307055
aF98.11256685248593
aF98.20594810266277
aF98.14086420102437
aF98.1748210192705
aF98.220096776932
aF98.28235094371658
aF98.16350207985512
aF98.37007272418575
asS'training_avg_loss'
p12
(lp13
F3.687972332255377
aF3.523937283416647
aF3.3464117518385885
aF3.135486868761699
aF2.9095974889823415
aF2.69157171372178
aF2.495156716233101
aF2.3185123240233594
aF2.157406013139241
aF2.0213453074310372
aF1.893759735708896
aF1.7783550164868152
aF1.6652823063111433
aF1.5642301383010802
aF1.4602221648145732
aF1.36769074944892
aF1.2834396953308043
aF1.2013745019841962
aF1.1336213127286707
aF1.0640743002158453
aF1.007593572738502
aF0.9475032095627245
aF0.9017085121498268
aF0.8490904414015211
aF0.8043788807201664
aF0.7649363601931982
aF0.7241383427091242
aF0.6887351766082359
aF0.6480403329814755
aF0.6145916081988794
aF0.5865624989599421
aF0.5557694862989866
aF0.5299381852949437
aF0.505413346468834
aF0.4805157865131747
aF0.46074746266910205
aF0.4397670419097618
aF0.4221947834951107
aF0.4029703027725274
aF0.385861311485368
aF0.36836645192243694
aF0.353191168024428
aF0.33612667308294525
aF0.32347269360340897
aF0.3122598252706237
aF0.29856862785449245
aF0.28554730886392804
aF0.2766198972958236
aF0.26370401756748413
aF0.25193869557215115
aF0.24315020959727235
aF0.24086564764945062
aF0.23456221085735715
aF0.2306726842890126
aF0.2258814457617273
aF0.22019118087974948
aF0.21595622709642873
aF0.2174945550396823
aF0.21286260150325545
aF0.2116935003957136
aF0.20799164960399144
aF0.20645290206522302
aF0.2019212814073496
aF0.2018668781992852
aF0.20256306231907373
aF0.20010139567124938
aF0.1964202138219133
aF0.1969045374004116
aF0.19461709141019495
aF0.19197192281537734
aF0.18947666691696136
aF0.18767448413310983
aF0.1855276016654829
aF0.18235834451964333
aF0.18346496051234676
aF0.1818887826936881
aF0.18016462465164979
aF0.18022354707885482
aF0.1782326320357927
aF0.1779128846620514
aF0.17739825451926264
aF0.17745468579311754
aF0.17528459435391194
aF0.1756966598923311
aF0.1708898558411946
aF0.17201693470434407
aF0.17081691450408693
aF0.17108827211539818
aF0.16888042216005597
aF0.16937856276279065
aF0.16847999094769825
aF0.16719003153655534
aF0.16836943093151469
aF0.16837400852235646
aF0.16413069920985268
aF0.1639439623021031
aF0.16275618480379153
aF0.16315976275481245
aF0.16123253234075924
aF0.16114902504433826
aF0.15952039700708923
aF0.16008861009791056
aF0.16008353127415567
aF0.15896405536555863
aF0.15825327255128852
aF0.1551459644453315
aF0.15827431544244497
aF0.15606962748997927
aF0.1546018940371755
aF0.15389037771842157
aF0.15307241553594228
aF0.15192395857023483
aF0.1523012408626218
aF0.14924582903695305
aF0.15027710959598237
aF0.14921101242216986
aF0.1488251581456214
aF0.1484242096872631
aF0.14712163379153964
aF0.1483435785835521
aF0.14527786989062802
aF0.14695635114886932
aF0.14407508853585654
aF0.14496512226008773
aF0.144684442471539
aF0.144522611723613
aF0.14206467097749895
aF0.14257374266964992
aF0.14196900183729677
aF0.13959163060168459
aF0.14045307975548185
aF0.13983013974732753
aF0.13798927730519392
aF0.13713846158359286
aF0.13740945992760836
aF0.13554680682411993
aF0.13658725197635882
aF0.13731873781943707
aF0.13368018452928704
aF0.13387079893178191
aF0.13282442689633484
aF0.13461907834431092
aF0.1346583658994676
aF0.13130582468177537
aF0.13191962344674993
aF0.13046281213735278
aF0.13133527445986778
aF0.12854356855510765
aF0.12836907733299355
aF0.1256873768913297
asS'best_val_acc'
p14
(lp15
I147
aF95.4780361757106
as.