ccollections
defaultdict
p0
(c__builtin__
list
p1
tp2
Rp3
S'validation_avg_acc'
p4
(lp5
F2.351421188630491
aF2.454780361757106
aF2.2222222222222223
aF3.2299741602067185
aF4.082687338501292
aF5.245478036175711
aF6.434108527131783
aF6.330749354005168
aF6.253229974160207
aF6.3565891472868215
aF7.390180878552972
aF7.31266149870801
aF7.545219638242894
aF8.242894056847545
aF8.75968992248062
aF8.75968992248062
aF8.837209302325581
aF9.79328165374677
aF9.71576227390181
aF9.612403100775193
aF10.258397932816537
aF10.878552971576227
aF10.981912144702843
aF10.568475452196383
aF11.343669250645995
aF12.118863049095607
aF12.299741602067183
aF12.945736434108527
aF13.643410852713178
aF14.263565891472869
aF15.555555555555555
aF15.762273901808786
aF17.493540051679588
aF17.57105943152455
aF19.328165374677003
aF21.188630490956072
aF21.65374677002584
aF23.772609819121445
aF25.322997416020673
aF26.899224806201552
aF28.992248062015506
aF30.335917312661497
aF31.886304909560724
aF33.1266149870801
aF34.8062015503876
aF37.02842377260982
aF37.9328165374677
aF40.23255813953488
aF40.80103359173127
aF42.50645994832041
aF43.77260981912145
aF43.798449612403104
aF45.76227390180878
aF45.16795865633075
aF45.89147286821706
aF46.485788113695094
aF45.58139534883721
aF47.54521963824289
aF48.55297157622739
aF50.12919896640827
aF50.025839793281655
aF52.76485788113695
aF50.20671834625323
aF51.007751937984494
aF53.64341085271318
aF52.01550387596899
aF54.18604651162791
aF54.21188630490956
aF52.84237726098191
aF53.514211886304906
aF54.78036175710594
aF55.55555555555556
aF57.23514211886305
aF56.79586563307493
aF54.263565891472865
aF57.674418604651166
aF58.44961240310077
aF57.46770025839793
aF56.79586563307493
aF57.39018087855297
aF58.78552971576227
aF56.56330749354005
aF59.84496124031008
aF57.571059431524546
aF57.98449612403101
aF59.09560723514212
aF59.76744186046512
aF59.56072351421189
aF60.361757105943155
aF59.14728682170543
aF60.3359173126615
aF61.16279069767442
aF59.17312661498708
aF61.52454780361757
asS'training_avg_acc'
p6
(lp7
F2.6316534140751013
aF3.225897733382382
aF4.06066951526642
aF4.513427091881491
aF5.634002094003792
aF6.647047171680014
aF8.534480319194092
aF10.769970853731005
aF12.484790175160587
aF15.289057415320185
aF18.381957610571888
aF21.79461784430799
aF25.19029966892102
aF28.51240838733411
aF30.779026005263308
aF33.95681824613034
aF36.73278813775149
aF38.84660007357311
aF41.58295367724044
aF44.05897167435411
aF46.45858683041399
aF48.5016553948895
aF50.632445739834175
aF52.92170123659413
aF55.1288944225926
aF57.20026033560655
aF58.82169840685928
aF60.30730920512748
aF62.24567758001076
aF63.79637227991737
aF65.02447720648576
aF66.77891281586915
aF67.66461982512239
aF68.94365997905996
aF70.27080562551289
aF71.25838308950452
aF72.46667987209598
aF73.39483290415689
aF74.49559976230228
aF75.1634171878095
aF75.96140241659357
aF76.98293669883132
aF77.6026486318232
aF78.39497439089958
aF79.05713234669912
aF80.15223973513682
aF80.89928973655168
aF81.34355810860522
aF82.06231076148165
aF82.53204674721978
aF83.31871303658848
aF83.58187837799598
aF84.02048728034183
aF84.29780129601856
aF84.60341266023373
aF85.03353235801805
aF85.74096607147911
aF85.74096607147911
aF86.21070205721723
aF86.70590565663997
aF87.09923880132432
aF87.1303658847166
aF87.34825546846261
aF87.26053368799343
aF87.87458615127763
aF87.8151617193469
aF88.06983785619288
aF88.43204391748493
aF88.59050906930021
aF88.6414442966694
aF88.88763122895385
aF88.92441778205382
aF88.99799088825377
aF89.24700755539206
aF89.47055660884575
aF89.43659979059962
aF89.3517077449843
aF89.77333823820707
aF90.09875774639916
aF90.21477687540677
aF89.89501683692238
aF90.12139562522992
aF90.25156342850674
aF90.29683918616826
aF90.19496873142987
aF90.574153201845
aF90.28269051189903
aF90.48643142137581
aF90.61376948979881
aF90.96748634652933
aF90.87693483120631
aF91.07218653612156
aF90.84580774781404
aF90.96748634652933
asS'training_avg_loss'
p8
(lp9
F3.7609047445107633
aF3.7509925211018014
aF3.7374039128072334
aF3.719583980107254
aF3.7026901953241755
aF3.6786033541639633
aF3.6251171578062644
aF3.546769043839225
aF3.4386218884436586
aF3.2952528190672163
aF3.1601421215115986
aF3.0218316685408246
aF2.881594395994408
aF2.7400333646663486
aF2.604440488361665
aF2.483765044274815
aF2.358416567539878
aF2.27789698953509
aF2.1786186562932714
aF2.076408067790305
aF1.9899227121068659
aF1.9095550472233938
aF1.8193153270811138
aF1.7551706301079444
aF1.6747163692001454
aF1.6043552015581932
aF1.5294138293283972
aF1.4741604191671525
aF1.4075415831017788
aF1.3570277576667282
aF1.2918090016116155
aF1.2301216857360928
aF1.1885100976764833
aF1.1351539789711114
aF1.0879008344615024
aF1.0525718822169983
aF1.0052124455652556
aF0.9738007103190188
aF0.9389586265836204
aF0.8968197581230938
aF0.8684193972682551
aF0.8304454808648196
aF0.80333177290241
aF0.7787835384461622
aF0.7521102047320075
aF0.726547295507684
aF0.6926829274304739
aF0.6769828751859068
aF0.6543039885214665
aF0.6375092845871303
aF0.622248269196105
aF0.6016541881524038
aF0.58733905360561
aF0.5786868877762252
aF0.5650790504454055
aF0.5496611530251385
aF0.5334367867577221
aF0.5233717470177973
aF0.5074883054609517
aF0.49325266707216414
aF0.49307824749065354
aF0.4807533474762447
aF0.4706144883949144
aF0.4695418713611551
aF0.4526197571831232
aF0.465696238524211
aF0.4437917024542316
aF0.4411073322696082
aF0.4288852699152625
aF0.42998678984661326
aF0.4219554832955263
aF0.41864744801044856
aF0.40965323927325653
aF0.40720353420273436
aF0.39888899134518235
aF0.40162363778033927
aF0.39950567506334467
aF0.3871188954055645
aF0.3802017224300845
aF0.3743835023264552
aF0.38565129341052734
aF0.3775056235949945
aF0.3673062764538067
aF0.36831959744639126
aF0.37314126522513585
aF0.358792467747983
aF0.3660111408011814
aF0.3613055599522127
aF0.35370561406562406
aF0.340895015040596
aF0.3452590285505523
aF0.3414432543904595
aF0.3441244015963124
aF0.3412667958473774
asS'best_val_acc'
p10
(lp11
I94
aF61.52454780361757
asS'validation_avg_loss'
p12
(lp13
F3.761682014563903
aF3.759900931424873
aF3.7584859015097605
aF3.7576967204880036
aF3.756677535892457
aF3.7550341031964125
aF3.7545404695417224
aF3.7591158292706313
aF3.7984204945330164
aF3.8077663924342904
aF3.807841716441073
aF3.810418235916808
aF3.7952497851941014
aF3.808941745018774
aF3.817868231248486
aF3.792298532333177
aF3.770499230909717
aF3.7829759740706255
aF3.7802841304808625
aF3.76856390783029
aF3.8055342583077207
aF3.779768503667156
aF3.7860498275559693
aF3.768098205250979
aF3.7684604280062732
aF3.7776395398516986
aF3.7820498917453973
aF3.746899632890095
aF3.734051848813237
aF3.6832754583629836
aF3.6503651384851423
aF3.6358094444570614
aF3.5658285806345384
aF3.5131758500131216
aF3.489841126040279
aF3.4020703337913334
aF3.3962408455151305
aF3.2809954128216097
aF3.2548715320360446
aF3.1396990004744025
aF3.0810543168730824
aF3.011808380600094
aF2.9153201810457294
aF2.882348694912223
aF2.770909372965495
aF2.6824781541060414
aF2.626966085113604
aF2.550233723642906
aF2.4738705253108217
aF2.4350984509293117
aF2.3611108794692877
aF2.3622560407456192
aF2.250951947352683
aF2.2751233290640265
aF2.2495315295473244
aF2.220896057996331
aF2.328742836057678
aF2.173958509775403
aF2.120783847739838
aF2.105718125237359
aF2.08676986004339
aF2.0069134009900944
aF2.0678250374412044
aF2.073781386579962
aF1.9816174972889036
aF1.97940963725403
aF1.9323235908528016
aF1.909874064916172
aF1.977716352773267
aF1.9594135323852224
aF1.8926515056797393
aF1.8467486595922662
aF1.8070709295051042
aF1.8194560388569991
aF1.9222009865812553
aF1.8017210396069272
aF1.8057844511914314
aF1.8197927563689476
aF1.8504052139991938
aF1.8325345682543377
aF1.742442451398194
aF1.8783968223157779
aF1.7601999258194168
aF1.750489190813799
aF1.7651768021497307
aF1.7134456718306825
aF1.673262744972564
aF1.7095526382288575
aF1.695889528407607
aF1.7162476478004949
aF1.6771094945666094
aF1.6623233201275809
aF1.7149535920884875
aF1.6547651520071103
as.