ccollections
defaultdict
p0
(c__builtin__
list
p1
tp2
Rp3
S'validation_avg_acc'
p4
(lp5
F6.459948320413437
aF9.457364341085272
asS'training_avg_acc'
p6
(lp7
F7.0432100512182005
aF28.416197402303403
asS'training_avg_loss'
p8
(lp9
F128574.71965408325
aF95960.64961242676
asS'validation_avg_loss'
p10
(lp11
F3.8042103671288308
aF3.7860642721486646
as.