ccollections
defaultdict
p0
(c__builtin__
list
p1
tp2
Rp3
S'validation_avg_acc'
p4
(lp5
F2.8940568475452197
aF3.255813953488372
aF4.547803617571059
aF4.444444444444445
aF6.227390180878553
aF7.235142118863049
aF7.493540051679586
aF9.224806201550388
aF11.343669250645995
aF14.160206718346254
aF17.545219638242894
aF20.41343669250646
aF23.04909560723514
aF27.751937984496124
aF29.71576227390181
aF35.24547803617571
aF38.01033591731266
aF42.35142118863049
aF48.55297157622739
aF47.9328165374677
aF53.90180878552972
aF57.02842377260982
aF60.671834625322994
aF61.963824289405686
aF64.8062015503876
aF70.41343669250647
aF70.15503875968992
aF75.01291989664082
aF76.61498708010336
aF76.2015503875969
aF78.42377260981912
aF75.91731266149871
aF78.78552971576228
aF80.98191214470285
aF81.6795865633075
aF78.63049095607235
aF80.90439276485787
aF81.96382428940568
aF82.19638242894057
aF82.76485788113695
aF81.88630490956072
aF83.28165374677003
aF83.82428940568475
aF83.72093023255815
aF84.75452196382429
aF83.7467700258398
aF84.75452196382429
aF83.33333333333333
aF83.87596899224806
aF84.44444444444444
aF84.08268733850129
aF85.4780361757106
aF84.75452196382429
aF84.96124031007751
aF86.17571059431525
aF85.14211886304909
aF86.40826873385014
aF85.73643410852713
aF86.38242894056847
aF87.00258397932816
aF85.89147286821705
aF87.2609819121447
aF86.2532299741602
aF87.18346253229974
aF86.56330749354005
aF86.45994832041343
aF86.38242894056847
aF86.30490956072352
aF85.81395348837209
aF87.59689922480621
aF87.36434108527132
aF87.39018087855297
aF88.06201550387597
aF87.67441860465117
aF87.85529715762274
aF87.82945736434108
aF86.84754521963825
aF87.90697674418605
aF87.67441860465117
aF88.01033591731266
aF88.03617571059432
aF87.41602067183463
aF87.90697674418605
aF88.16537467700259
aF88.13953488372093
aF87.98449612403101
aF88.19121447028424
aF88.39793281653746
aF88.63049095607235
aF88.13953488372093
aF88.03617571059432
aF88.08785529715762
aF88.86304909560724
aF88.73385012919897
aF89.12144702842377
aF89.17312661498708
aF89.43152454780362
aF89.27648578811369
aF87.62273901808786
aF88.6046511627907
asS'validation_avg_loss'
p6
(lp7
F3.7758051396648398
aF3.842977382847197
aF3.9043796667448927
aF3.935335183944505
aF3.967324813330204
aF3.952714747544715
aF3.943180799853894
aF3.8611019755518714
aF3.71407523537175
aF3.554322231401153
aF3.374289016329349
aF3.1877419957202844
aF3.013048821087031
aF2.8349663860114047
aF2.670438698835151
aF2.4746432364140984
aF2.2943871020346647
aF2.143215488863854
aF1.9898441308998631
aF1.9023218514383302
aF1.6833966919849086
aF1.5572031485633948
aF1.3966563750838124
aF1.295509051090679
aF1.241566083736198
aF1.0811453998435376
aF1.0630973091190175
aF0.9509710906703959
aF0.8934388220040681
aF0.9521483827699987
aF0.8749870500592298
aF0.8774643651621287
aF0.7781964529392331
aF0.7260501876290532
aF0.7050343261381914
aF0.8398348923565613
aF0.7074883969418839
aF0.6929327968527257
aF0.6483060652568204
aF0.64937937819719
aF0.673867676512023
aF0.6217528474264482
aF0.6195572691269277
aF0.6295612136267837
aF0.6194596950787791
aF0.6202833103997878
aF0.5879559838715989
aF0.6285912215358335
aF0.6076323769693034
aF0.60281536318819
aF0.5940476246901308
aF0.5606829633609
aF0.5602196599484376
aF0.575433079197098
aF0.5644724330345039
aF0.5917329725506174
aF0.5437994852308329
aF0.5521385165025271
aF0.5363451139782422
aF0.5379972353298458
aF0.5701227870884108
aF0.5035767859983853
aF0.5740852475151882
aF0.544945162152679
aF0.5494502662156422
aF0.530145259605581
aF0.5555224798193492
aF0.5293973934680262
aF0.6119539200234436
aF0.5578576418088668
aF0.5541829948459128
aF0.530670751979784
aF0.5157467659597119
aF0.5302635046996378
aF0.5277119563001771
aF0.4997388403978228
aF0.5175978321848601
aF0.514969485544728
aF0.5853213534378194
aF0.5129412502662257
aF0.5203276240092086
aF0.5455850351722165
aF0.5654412982560326
aF0.5638737097195138
aF0.5590078203354945
aF0.5037001190338589
aF0.5542234453338816
aF0.536731853185132
aF0.49918319783390086
aF0.545729227865687
aF0.5297037289580914
aF0.5425014151032239
aF0.530147197483222
aF0.49604318027140315
aF0.4725705586675523
aF0.4916711575031589
aF0.4733200937952336
aF0.4613793553370569
aF0.5343095884287492
aF0.5400782517704076
asS'lr'
p8
(lp9
F0.001
aF0.001
aF0.001
aF0.001
aF0.001
aF0.001
aF0.001
aF0.001
aF0.001
aF0.001
aF0.001
aF0.001
aF0.001
aF0.001
aF0.001
aF0.001
aF0.001
aF0.001
aF0.001
aF0.001
aF0.001
aF0.001
aF0.001
aF0.001
aF0.001
aF0.001
aF0.001
aF0.001
aF0.001
aF0.001
aF0.001
aF0.001
aF0.001
aF0.001
aF0.0005
aF0.0005
aF0.0005
aF0.0005
aF0.0005
aF0.0005
aF0.0005
aF0.0005
aF0.0005
aF0.0005
aF0.0005
aF0.0005
aF0.0005
aF0.0005
aF0.0005
aF0.0005
aF0.0005
aF0.0005
aF0.0005
aF0.0005
aF0.0005
aF0.0005
aF0.0005
aF0.0005
aF0.0005
aF0.0005
aF0.0005
aF0.0005
aF0.0005
aF0.0005
aF0.0005
aF0.0005
aF0.0005
aF0.0005
aF0.0005
aF0.0005
aF0.0005
aF0.0005
aF0.0005
aF0.0005
aF0.0005
aF0.0005
aF0.0005
aF0.0005
aF0.0005
aF0.0005
aF0.0005
aF0.0005
aF0.0005
aF0.0005
aF0.0005
aF0.0005
aF0.0005
aF0.0005
aF0.0005
aF0.0005
aF0.0005
aF0.0005
aF0.0005
aF0.0005
aF0.0005
aF0.0005
aF0.0005
aF0.0005
aF0.0005
aF0.0005
asS'training_avg_acc'
p10
(lp11
F2.744842808228869
aF5.588726336342285
aF6.938509861625966
aF7.583689408302442
aF8.523161379778715
aF10.03141005687767
aF12.198986954922324
aF15.396587339766263
aF19.129007611986758
aF24.30459265966779
aF29.3698180480489
aF33.64554741220748
aF38.15048529952743
aF41.611251025778884
aF45.193695350745635
aF48.578058235943296
aF51.945442712017886
aF55.024194233000365
aF58.091626814567476
aF60.9553184866578
aF63.966156371148024
aF66.06864936755426
aF68.13435581086053
aF70.05291604176689
aF72.26010922776535
aF73.68629559410283
aF75.118141430148
aF76.42264919777017
aF77.92240867030759
aF78.88734825546847
aF79.97962590905232
aF81.21339030532839
aF81.84725091258949
aF82.83482837658111
aF83.7884490223266
aF84.12801720478791
aF84.55813690257223
aF84.55530716771838
aF85.10144599451031
aF85.60513879849458
aF85.87679334446362
aF86.26446701944027
aF86.32955092107869
aF86.54461076997086
aF86.96341152833979
aF87.50672062027787
aF87.21242819547808
aF87.69065338577775
aF87.55765584764707
aF88.25943009140043
aF88.23679221256968
aF88.63012535725403
aF88.66974164520785
aF88.77444183480009
aF88.98384221398454
aF89.20739126743824
aF89.09703160813832
aF89.5130026316534
aF89.31209145703048
aF89.7422111548148
aF89.62053255609949
aF89.93746285973005
aF90.13554429949913
aF90.09592801154531
aF90.12139562522992
aF90.35343388324515
aF90.54019638359885
aF90.61376948979881
aF90.49492062593735
aF90.76374543705255
aF90.91372138430629
aF90.80902119471405
aF91.08916494524463
aF91.30705452899063
aF91.21367327881377
aF91.19952460454455
aF91.40892498372902
aF91.63530377203656
aF91.38628710489827
aF92.04561532584397
aF91.61549562805965
aF91.77113104502108
aF92.0541045304055
aF91.92676646198251
aF92.02014771215937
aF92.01731797730552
aF92.3936727128668
aF92.03146665157475
aF92.53515945555901
aF92.2012507428054
aF92.56345680409746
aF92.5860946829282
aF92.74455983474348
aF92.44743767508984
aF92.64551911485894
aF92.86906816831262
aF92.85491949404341
aF92.6370299102974
aF93.03885225954328
aF93.0586604035202
asS'training_avg_loss'
p12
(lp13
F3.7632211787567273
aF3.6561852658644014
aF3.556067132400655
aF3.4879794699782956
aF3.4392564392996587
aF3.39031918096962
aF3.3137642055595564
aF3.2142788483765337
aF3.0712016384772753
aF2.8738424936462574
aF2.6589155158552926
aF2.465173142400054
aF2.277465438508141
aF2.113264391076103
aF1.9623443389027284
aF1.8216874137111354
aF1.6935016676121972
aF1.5750111741516897
aF1.4598527583570202
aF1.35577345721544
aF1.2507064036944648
aF1.1736689871190518
aF1.0947599803663655
aF1.0241654090381558
aF0.9512372393772576
aF0.9049168714134009
aF0.844767480664445
aF0.8033492192134761
aF0.7491702544317778
aF0.7177085440903468
aF0.6801577648500821
aF0.6454855590917895
aF0.6217391614736639
aF0.5884464461537822
aF0.5568620682626262
aF0.5370568586308629
aF0.5283298722086368
aF0.5284815084826626
aF0.5104512749640119
aF0.4903115699690561
aF0.4817203864362036
aF0.47257276663634756
aF0.463467454231569
aF0.4603948890800242
aF0.44893785841838285
aF0.4347934679182334
aF0.43165785857009853
aF0.42744191671700316
aF0.4230043556226116
aF0.40769257835980377
aF0.4053024257152675
aF0.39268820317978465
aF0.3902613986931321
aF0.38689078944368777
aF0.3819571070451277
aF0.37834468715755376
aF0.3716950406445021
aF0.36802231080429726
aF0.3659735377675025
aF0.36043466972897925
aF0.35708519875347156
aF0.35081030754819176
aF0.340100500615965
aF0.34160387084744454
aF0.3334710448824316
aF0.3293245421554551
aF0.32540351089170544
aF0.32127392563573903
aF0.32490492597049025
aF0.31527144026650367
aF0.30878082740596624
aF0.30974005262354964
aF0.30152368935486495
aF0.30108179311442784
aF0.3000300649997654
aF0.30262202129538346
aF0.2948493916769985
aF0.28820533331992443
aF0.2905598061162468
aF0.27670826935269555
aF0.2852825852652661
aF0.28282403655143806
aF0.2742678865639833
aF0.2791151871297061
aF0.2734016793170699
aF0.27139469811010214
aF0.2678297057095528
aF0.2759581877847334
aF0.2607028041766628
aF0.26007325043196305
aF0.2520041155651182
aF0.25887674454021625
aF0.25201911898473484
aF0.2540537515747557
aF0.25098753974637344
aF0.24272043390459444
aF0.24512686182685584
aF0.24973262583141115
aF0.2455954334438952
aF0.23884219721057912
asS'best_val_acc'
p14
(lp15
I97
aF89.43152454780362
as.