ccollections
defaultdict
p0
(c__builtin__
list
p1
tp2
Rp3
S'validation_avg_acc'
p4
(lp5
F3.3333333333333335
aF5.813953488372093
aF7.622739018087855
aF9.043927648578812
aF10.956072351421188
aF12.68733850129199
aF17.674418604651162
aF20.74935400516796
aF24.05684754521964
aF25.400516795865634
aF27.02842377260982
aF30.697674418604652
aF35.064599483204134
aF40.645994832041346
aF45.684754521963825
aF50.3875968992248
aF52.19638242894057
aF55.1421188630491
aF58.01033591731266
aF59.638242894056845
aF61.86046511627907
aF64.1343669250646
aF66.64082687338501
aF67.77777777777777
aF69.58656330749353
aF71.96382428940568
aF73.7467700258398
aF75.1937984496124
aF77.13178294573643
aF79.27648578811369
aF81.08527131782945
aF82.99741602067184
aF85.60723514211887
aF85.14211886304909
aF87.39018087855297
aF87.10594315245478
aF88.13953488372093
aF89.19896640826873
aF88.9922480620155
aF90.25839793281654
aF90.87855297157623
aF90.64599483204134
aF90.80103359173127
aF91.26614987080103
aF91.52454780361757
aF91.70542635658914
aF91.96382428940568
aF92.7390180878553
aF92.4547803617571
aF92.40310077519379
aF92.24806201550388
aF92.94573643410853
aF93.28165374677003
aF92.63565891472868
aF93.35917312661499
aF93.25581395348837
aF93.90180878552971
aF93.28165374677003
aF93.87596899224806
aF93.82428940568475
aF94.10852713178295
aF94.28940568475453
aF94.78036175710594
aF93.54005167958657
aF94.44444444444444
aF95.01291989664082
aF94.65116279069767
aF94.59948320413437
aF94.65116279069767
aF94.4186046511628
aF94.78036175710594
aF94.59948320413437
aF94.98708010335918
aF95.1937984496124
aF94.88372093023256
aF94.54780361757106
aF95.06459948320413
aF95.32299741602067
aF95.24547803617571
aF95.40051679586563
aF95.71059431524547
aF95.21963824289406
aF95.24547803617571
aF95.24547803617571
aF95.21963824289406
aF95.81395348837209
aF96.07235142118863
aF95.65891472868218
aF95.91731266149871
aF95.71059431524547
aF95.5297157622739
aF95.5813953488372
aF95.71059431524547
aF95.40051679586563
aF95.78811369509044
aF95.94315245478036
aF96.09819121447029
aF95.34883720930233
aF96.04651162790698
aF95.94315245478036
aF96.02067183462532
aF95.50387596899225
aF96.14987080103359
aF95.50387596899225
aF95.29715762273902
aF96.64082687338501
aF96.2532299741602
aF94.85788113695091
aF95.91731266149871
aF96.27906976744185
aF96.69250645994832
aF96.09819121447029
aF96.27906976744185
aF95.68475452196382
aF96.2015503875969
aF96.09819121447029
aF96.64082687338501
aF96.38242894056847
aF96.2015503875969
aF96.5374677002584
aF95.73643410852713
aF96.12403100775194
aF95.60723514211887
aF95.68475452196382
aF95.68475452196382
aF95.68475452196382
aF96.82170542635659
aF96.07235142118863
aF96.09819121447029
aF96.35658914728683
aF96.35658914728683
aF95.99483204134367
aF96.12403100775194
aF95.83979328165374
aF96.77002583979328
aF96.33074935400516
aF95.99483204134367
aF96.35658914728683
aF96.2015503875969
aF96.9250645994832
aF96.43410852713178
aF96.02067183462532
aF96.61498708010336
aF95.5297157622739
aF96.74418604651163
aF96.04651162790698
aF96.45994832041343
aF96.89922480620154
aF96.84754521963825
aF97.02842377260981
asS'validation_avg_loss'
p6
(lp7
F3.754734545961523
aF3.7537194875475666
aF3.7490444843775235
aF3.6905518652548777
aF3.5787362736941
aF3.442626519905504
aF3.290084522207886
aF3.1255356946348836
aF2.9688098850792386
aF2.8225725897214824
aF2.6708605593797157
aF2.5512703771122975
aF2.4081752075397382
aF2.274344548636937
aF2.1600757808956375
aF1.9667560623597728
aF1.8598504694857338
aF1.7259505519263196
aF1.6157362692115842
aF1.5064819969872172
aF1.4119937468868817
aF1.3180019372501424
aF1.2135028699263737
aF1.1371391153766819
aF1.0753253535860885
aF0.9765644205171008
aF0.9068179384990565
aF0.8378324768647976
aF0.7937539084013119
aF0.7409196751755337
aF0.6824111681267888
aF0.652118257997264
aF0.6077330284109411
aF0.5822449934960028
aF0.5536384365586348
aF0.5486100961148584
aF0.5487938650818758
aF0.5005711588440631
aF0.5002540572669155
aF0.47345341496381343
aF0.4528980876432217
aF0.4543679787669071
aF0.44445359714194477
aF0.42349367482871664
aF0.4130272866835582
aF0.3978606678025667
aF0.39710344050743784
aF0.37505561190751174
aF0.36342367826737176
aF0.3667976092884091
aF0.36364185689185635
aF0.3460873095448627
aF0.32955075389963095
aF0.3332011351020145
aF0.3225332821870959
aF0.3241330338887466
aF0.30829259901083716
aF0.31042034727080847
aF0.2929474784095004
aF0.30705378327412813
aF0.28696481609760327
aF0.2795219127098411
aF0.2749061427201874
aF0.28093000940343205
aF0.26658715230318925
aF0.2527735977671867
aF0.2626568611124073
aF0.25565668237455746
aF0.25372019899137876
aF0.2534340218094584
aF0.23797173900698199
aF0.24755034122510167
aF0.2359587201429892
aF0.22800131578778113
aF0.22937102406947496
aF0.25080895994330255
aF0.2213063285524839
aF0.2214483160573691
aF0.22680962207012398
aF0.21935179382370115
aF0.20263061913485983
aF0.22045655983093482
aF0.22268416287440046
aF0.21311880335866326
aF0.21367545677517427
aF0.20083529429765326
aF0.19616750617937523
aF0.2003927824667412
aF0.18730170945287983
aF0.19381272316133022
aF0.18861998034309047
aF0.19421953846548878
aF0.1902562315438607
aF0.1950650017429384
aF0.19786108854667162
aF0.19010984821375027
aF0.17967717901103256
aF0.19313669328118171
aF0.18267862284676356
aF0.18577392808226653
aF0.18478723080968365
aF0.192729112140122
aF0.17729502350804263
aF0.19380177042954805
aF0.19253897939830325
aF0.17631872254556155
aF0.17341775247196664
aF0.20590433539384712
aF0.17979427788031194
aF0.16799521341688872
aF0.16010236214047407
aF0.1715716005680789
aF0.17665355942219266
aF0.17549049313004472
aF0.17104829308560035
aF0.16454493246048457
aF0.15929704017224855
aF0.16086167548650765
aF0.1657978800734269
aF0.15985220601584868
aF0.16577446373992957
aF0.15969377606337076
aF0.17493626635223242
aF0.16747515758436934
aF0.17565664096954411
aF0.17301230999985254
aF0.148137831497331
aF0.1616411034244014
aF0.16543008850391674
aF0.15225709111980842
aF0.15842240507635036
aF0.1613120783409176
aF0.15604440020710153
aF0.16620823368141355
aF0.1490502844148289
aF0.15548443453006197
aF0.15608088763031233
aF0.1496528217082877
aF0.16083238120900722
aF0.13858136355790288
aF0.1541991292352208
aF0.157897840693439
aF0.14618466746938014
aF0.1711196871946063
aF0.14303630619365193
aF0.15196585493783157
aF0.14651020933616454
aF0.1378582735033345
aF0.13302369925605004
aF0.13750432479058125
asS'lr'
p8
(lp9
F0.001
aF0.001
aF0.001
aF0.001
aF0.001
aF0.001
aF0.001
aF0.001
aF0.001
aF0.001
aF0.001
aF0.001
aF0.001
aF0.001
aF0.001
aF0.001
aF0.001
aF0.001
aF0.001
aF0.001
aF0.001
aF0.001
aF0.001
aF0.001
aF0.001
aF0.001
aF0.001
aF0.001
aF0.001
aF0.001
aF0.001
aF0.001
aF0.001
aF0.0005
aF0.0005
aF0.0005
aF0.0005
aF0.0005
aF0.0005
aF0.0005
aF0.0005
aF0.0005
aF0.0005
aF0.0005
aF0.0005
aF0.0005
aF0.0005
aF0.0005
aF0.0005
aF0.0005
aF0.0005
aF0.0005
aF0.0005
aF0.0005
aF0.0005
aF0.0005
aF0.0005
aF0.0005
aF0.0005
aF0.0005
aF0.0005
aF0.0005
aF0.0005
aF0.0005
aF0.0005
aF0.0005
aF0.0005
aF0.0005
aF0.0005
aF0.0005
aF0.0005
aF0.0005
aF0.0005
aF0.0005
aF0.0005
aF0.0005
aF0.0005
aF0.0005
aF0.0005
aF0.0005
aF0.0005
aF0.0005
aF0.0005
aF0.0005
aF0.0005
aF0.0005
aF0.0005
aF0.0005
aF0.0005
aF0.0005
aF0.0005
aF0.0005
aF0.0005
aF0.0005
aF0.0005
aF0.0005
aF0.0005
aF0.0005
aF0.0005
aF0.0005
aF0.0005
aF0.0005
aF0.0005
aF0.0005
aF0.0005
aF0.0005
aF0.0005
aF0.0005
aF0.0005
aF0.0005
aF0.0005
aF0.0005
aF0.0005
aF0.0005
aF0.0005
aF0.0005
aF0.0005
aF0.0005
aF0.0005
aF0.0005
aF0.0005
aF0.0005
aF0.0005
aF0.0005
aF0.0005
aF0.0005
aF0.0005
aF0.0005
aF0.0005
aF0.0005
aF0.0005
aF0.0005
aF0.0005
aF0.0005
aF0.0005
aF0.0005
aF0.0005
aF0.0005
aF0.0005
aF0.0005
aF0.0005
aF0.0005
aF0.0005
aF0.0005
aF0.0005
aF0.0005
aF0.0005
aF0.0005
aF0.0005
aF0.0005
asS'training_avg_acc'
p10
(lp11
F5.220860805342539
aF9.65222558646255
aF14.270352867936275
aF19.850589999717027
aF24.70924474376751
aF30.184781685956025
aF36.10175726534424
aF42.10645462520162
aF46.6255411867908
aF51.02577888451852
aF54.56011771696992
aF58.26990011035966
aF62.44658875463369
aF66.96850505107672
aF71.26687229406605
aF74.4333455955177
aF76.90936359263137
aF79.51271965816802
aF81.61804238942811
aF83.70921644641896
aF85.03353235801805
aF86.58988652763236
aF87.4954016808625
aF88.54240357678485
aF89.26115622966128
aF90.01386570078384
aF90.77789411132177
aF91.44005206712131
aF92.0541045304055
aF92.62288123602818
aF93.25957157814312
aF93.74911570785818
aF94.224511163304
aF94.70556608845752
aF95.00834771781884
aF95.16398313478027
aF95.42997821104163
aF95.36772404425706
aF95.73275984040295
aF95.77237612835677
aF96.11477404567192
aF96.16004980333342
aF96.36096097795637
aF96.41755567503326
aF96.40340700076403
aF96.55904241772546
aF96.81088881971759
aF96.75429412264072
aF96.9580350321175
aF96.95520529726365
aF97.05990548685588
aF97.1759246158635
aF97.30609241914033
aF97.12781912334815
aF97.221200373525
aF97.35985738136337
aF97.50700359376326
aF97.40513313902487
aF97.58906590452474
aF97.65980927587086
aF97.67961741984776
aF97.7588499957554
aF97.79563654885537
aF97.76167973060925
aF97.71923370780158
aF97.82110416253997
aF97.77582840487847
aF97.97108010979372
aF97.92014488242452
aF98.07012082967826
aF97.96825037493987
aF97.96542064008602
aF98.14086420102437
aF98.23141571634739
aF98.3219672316704
aF98.16067234500127
aF98.17199128441665
aF98.31064829225501
aF98.3615835196242
aF98.32479696652423
aF98.30781855740118
aF98.44930530009339
aF98.35309431506268
aF98.35309431506268
aF98.49741079260873
aF98.44647556523954
aF98.38988086816265
aF98.50872973202411
aF98.40685927728572
aF98.49458105775489
aF98.66719488383939
aF98.61625965647019
aF98.59928124734712
aF98.51155946687796
aF98.62191912617787
aF98.55117575483177
aF98.55683522453945
aF98.53136761085486
aF98.61908939132404
aF98.64172727015479
aF98.66436514898554
aF98.74925719460087
aF98.7068111717932
aF98.69549223237783
aF98.74925719460087
aF98.74076799003933
aF98.62191912617787
aF98.77472480828547
aF98.76340586887008
aF98.79170321740853
aF98.76623560372393
aF98.84263844477772
aF98.85678711904694
aF98.85678711904694
aF99.00676306630069
aF98.85961685390079
aF98.92187102068536
aF98.89357367214691
aF98.88791420243923
aF98.8539573841931
aF98.9303602252469
aF98.89357367214691
aF98.9756359829084
aF98.94733863436996
aF98.83697897507004
aF98.96997651320072
aF98.91338181612383
aF98.93318996010073
aF98.9303602252469
aF99.01242253600837
aF99.03789014969297
aF98.89640340700076
aF98.97846571776225
aF99.05769829366989
aF99.07750643764679
aF99.0973145816237
aF99.05769829366989
aF99.10297405133139
aF98.98978465717762
aF99.07184696793911
aF99.15107954384675
aF99.04637935425451
aF99.06052802852373
aF99.08316590735448
aF99.06901723308526
aF99.04920908910834
aF99.10014431647754
aF99.19069583180055
aF99.17088768782365
aF99.16522821811596
asS'training_avg_loss'
p12
(lp13
F3.7009383401595737
aF3.518640803219409
aF3.339436712658747
aF3.1591501576261107
aF2.937435254692009
aF2.6949451602191075
aF2.4556214572139323
aF2.223869242339322
aF2.0230045282981397
aF1.8469112636095841
aF1.695123312593994
aF1.5618993316091663
aF1.428464462384765
aF1.2970173714666173
aF1.1670631746669762
aF1.0538926737300205
aF0.9523460782779531
aF0.8593568991864523
aF0.7848629774580841
aF0.7123061969562994
aF0.6549201043906528
aF0.5962306856552474
aF0.5509200087089909
aF0.5047693989698482
aF0.467373131282153
aF0.4348791273371764
aF0.4029285514620185
aF0.377761566280364
aF0.34941014830907385
aF0.32702801010935817
aF0.30746964277053024
aF0.28592702476779747
aF0.2717160850770911
aF0.2538158047155059
aF0.24409118796073606
aF0.23726366200030546
aF0.23115136105984768
aF0.22836240666531765
aF0.218365052407604
aF0.21420433956326132
aF0.20254770875358297
aF0.20034580749662412
aF0.19195716706732038
aF0.19029267232511635
aF0.18615080172185963
aF0.18003728205624905
aF0.17574333550215623
aF0.17528046620223042
aF0.1664903048070556
aF0.16261546557610582
aF0.16081456611960593
aF0.15444043954789172
aF0.1516786477113675
aF0.15039958773452974
aF0.14696751423746188
aF0.14327421800002485
aF0.13652662005508562
aF0.14046246482127828
aF0.13497894888853337
aF0.1305075987156011
aF0.12881240227343949
aF0.12556591535276407
aF0.12260934947561761
aF0.12246298045826544
aF0.12286344557404333
aF0.11861605075014282
aF0.11635905827558143
aF0.11528048220425342
aF0.11325028217312112
aF0.1098511914364392
aF0.10993104755664243
aF0.10630266131540825
aF0.10454772109305832
aF0.10336084889247012
aF0.10093781444387426
aF0.10137144394731032
aF0.09719697294462186
aF0.0968148365413135
aF0.09391519036923568
aF0.09405488154034639
aF0.09088893562826021
aF0.08954199748086607
aF0.0878660685390874
aF0.0910056321930071
aF0.08475434955870134
aF0.08688961755049081
aF0.08655673420629267
aF0.08303572575370452
aF0.08409306140061891
aF0.08243699876166263
aF0.07832776098712271
aF0.07766632303060451
aF0.07865425571493573
aF0.07882616611614458
aF0.07641900734840844
aF0.07590251094555052
aF0.07541234754045965
aF0.07576077110364794
aF0.07231460486173785
aF0.07347319188805192
aF0.07182769760177012
aF0.07021310884413694
aF0.06995837065952872
aF0.06896040523702252
aF0.06932357851257855
aF0.06738789996785359
aF0.06849585380476343
aF0.06719106613717692
aF0.06603846595459968
aF0.06459672196199691
aF0.06385335554651968
aF0.06337861839830816
aF0.06306241683217294
aF0.06192950923808035
aF0.059380039626267006
aF0.060774217951921485
aF0.06122546752545778
aF0.05962514210437662
aF0.05825668778645236
aF0.060464513884082124
aF0.05838567846908732
aF0.05763396980513599
aF0.05632485618949284
aF0.05596827419522211
aF0.05789427745802374
aF0.05387752052546121
aF0.055902944209670846
aF0.054524512320842086
aF0.055998113147505184
aF0.0522645370899651
aF0.05255181759156498
aF0.05428705204423388
aF0.0526804290740342
aF0.05117576083878837
aF0.04943207698560853
aF0.04902474028340469
aF0.049893057381089054
aF0.04996506631173647
aF0.051916004929910504
aF0.05054778273955897
aF0.04695135416389912
aF0.04969351776872946
aF0.04854861553049461
aF0.04719917928748491
aF0.047886580216998965
aF0.04749908928029312
aF0.047527256677246464
aF0.0439955379443162
aF0.045271678248205785
aF0.044934871031353595
asS'best_val_acc'
p14
(lp15
I150
aF97.02842377260981
as.