ccollections
defaultdict
p0
(c__builtin__
list
p1
tp2
Rp3
S'validation_avg_acc'
p4
(lp5
F2.8940568475452197
aF2.9715762273901807
aF3.049095607235142
aF4.108527131782946
aF5.529715762273902
aF7.338501291989664
aF8.940568475452196
aF11.162790697674419
aF15.322997416020671
aF17.286821705426355
aF20.0
aF22.015503875968992
aF23.359173126614987
aF24.599483204134366
aF28.63049095607235
aF34.41860465116279
aF37.31266149870801
aF44.70284237726098
aF48.21705426356589
aF53.049095607235145
aF56.201550387596896
aF58.96640826873385
aF62.11886304909561
aF64.16020671834626
aF67.1576227390181
aF70.82687338501292
aF72.32558139534883
aF75.27131782945736
aF77.05426356589147
aF82.29974160206719
aF82.3514211886305
aF82.97157622739019
aF87.46770025839793
aF87.13178294573643
aF89.12144702842377
aF88.42377260981912
aF89.09560723514213
aF90.46511627906976
aF89.14728682170542
aF91.6795865633075
aF91.26614987080103
aF91.93798449612403
aF91.36950904392765
aF91.80878552971576
aF93.15245478036175
aF91.96382428940568
aF92.71317829457364
aF93.5142118863049
aF93.54005167958657
aF93.69509043927648
aF93.82428940568475
aF94.03100775193798
aF93.33333333333333
aF94.1343669250646
aF94.10852713178295
aF91.7312661498708
aF93.5142118863049
aF93.7467700258398
aF93.7467700258398
aF93.69509043927648
aF94.31524547803618
aF93.95348837209302
aF94.28940568475453
aF94.21188630490956
aF94.4186046511628
aF94.4186046511628
aF94.75452196382429
aF93.61757105943153
aF94.16020671834626
aF95.27131782945736
aF95.03875968992249
aF94.85788113695091
aF94.28940568475453
aF94.28940568475453
aF95.01291989664082
aF94.28940568475453
aF94.90956072351422
aF95.03875968992249
aF94.85788113695091
aF95.01291989664082
aF95.11627906976744
aF95.03875968992249
aF94.78036175710594
aF94.8062015503876
aF94.93540051679587
aF95.1937984496124
aF94.39276485788113
aF95.50387596899225
aF94.85788113695091
aF95.14211886304909
aF95.1937984496124
aF95.37467700258398
aF95.16795865633075
aF95.14211886304909
aF95.06459948320413
aF95.55555555555556
aF95.06459948320413
aF94.90956072351422
aF95.55555555555556
aF95.89147286821705
aF95.40051679586563
aF95.21963824289406
aF95.94315245478036
aF95.03875968992249
aF95.32299741602067
aF95.4780361757106
aF95.94315245478036
aF95.99483204134367
aF95.76227390180878
aF95.27131782945736
aF95.60723514211887
aF96.02067183462532
aF95.63307493540051
aF95.5813953488372
aF95.83979328165374
aF95.27131782945736
aF95.55555555555556
aF95.32299741602067
aF95.8656330749354
aF95.50387596899225
aF95.60723514211887
aF95.5813953488372
aF95.4780361757106
aF95.55555555555556
aF95.09043927648578
aF95.76227390180878
aF95.71059431524547
aF95.5297157622739
aF95.45219638242894
aF96.40826873385014
aF96.12403100775194
aF95.94315245478036
aF95.73643410852713
aF95.68475452196382
aF95.21963824289406
aF96.09819121447029
aF96.07235142118863
aF95.55555555555556
aF95.78811369509044
aF95.73643410852713
aF95.65891472868218
aF95.65891472868218
aF96.30490956072352
aF95.27131782945736
aF90.87855297157623
aF94.96124031007751
aF95.11627906976744
aF95.55555555555556
aF95.65891472868218
aF96.2015503875969
asS'validation_avg_loss'
p6
(lp7
F3.758995483950435
aF3.75928296426778
aF3.7846906637344557
aF3.829183120136113
aF3.86244757206249
aF3.84495340588789
aF3.760614697754537
aF3.633372669072114
aF3.4746199797598276
aF3.3126093011801867
aF3.1521181773153693
aF2.993569055576965
aF2.8452185997975272
aF2.6851974511331367
aF2.5386256109528453
aF2.3478401351960745
aF2.192395401894276
aF2.0228151349596275
aF1.8539411649839515
aF1.689508389271507
aF1.535775943535551
aF1.4098381893117298
aF1.2661984442278396
aF1.178582474527741
aF1.0598347139258408
aF0.9485716286940784
aF0.8975566539672765
aF0.7988403701023692
aF0.7591960232656747
aF0.6565830019863385
aF0.6523168311889935
aF0.5943801806339614
aF0.509962385672431
aF0.49301486827182833
aF0.44881619627873875
aF0.453896620943276
aF0.432873871765588
aF0.38593669965940236
aF0.42443378359579914
aF0.35697610953952685
aF0.34680601480905476
aF0.3272163902368464
aF0.3381167849022847
aF0.31735265765950393
aF0.27222513323240655
aF0.29589138431546763
aF0.27751259169774734
aF0.24270605019796687
aF0.24826497355553032
aF0.24167116819483828
aF0.2383255468079825
aF0.2443568323632986
aF0.23734197903698845
aF0.21699757578058376
aF0.21247247989272616
aF0.2904773120572237
aF0.22143882769075746
aF0.208244918341669
aF0.21374050859068291
aF0.21096935423298013
aF0.19637193078348456
aF0.21234740004790537
aF0.20763466261298388
aF0.19896399134972184
aF0.19751985314752166
aF0.189308581006345
aF0.17871868932181706
aF0.214541966540171
aF0.1904834052304754
aF0.17142286096658624
aF0.16702921379319072
aF0.17471354554891008
aF0.19385871788467587
aF0.1877749207963835
aF0.17268652289369424
aF0.20106123657066866
aF0.17647070454539449
aF0.17087058252125537
aF0.1739448560257406
aF0.17295233472033816
aF0.16645548494932186
aF0.1715413894328633
aF0.17131774827960677
aF0.1702415859228053
aF0.17313921504126964
aF0.15334376714466674
aF0.21203140036614482
aF0.15897807062155922
aF0.16811519527377064
aF0.1555407054378177
aF0.15740821113381584
aF0.14755078756012197
aF0.15006694389478295
aF0.15623445642127798
aF0.15657583859758764
aF0.16468207190843245
aF0.15634663790543815
aF0.1725300217467271
aF0.15230149296665857
aF0.1396400515471395
aF0.15669408971467838
aF0.1699477723674507
aF0.13789129098648692
aF0.15305391536407095
aF0.14757067016710934
aF0.13978057504951646
aF0.13424041446259857
aF0.14550275486227346
aF0.13950130659028
aF0.15751615709261801
aF0.14369127586416572
aF0.1376041569670022
aF0.14213104816069416
aF0.14299944296313175
aF0.14048382270123416
aF0.15195164789881277
aF0.14762671343099026
aF0.14468358345618543
aF0.1344965765808615
aF0.13993261738581636
aF0.14747274292762888
aF0.14588764696574508
aF0.14556333215459605
aF0.15093308141459869
aF0.15067990616942187
aF0.13347894739809635
aF0.1362169901368711
aF0.14589192498275572
aF0.15332474780463895
aF0.12322320213104605
aF0.12967620911570002
aF0.1323070768660382
aF0.13431929864214362
aF0.1414256186205268
aF0.1560694126394825
aF0.12904448724611728
aF0.1267633100560065
aF0.1422056247036211
aF0.13362054892698932
aF0.14004502700285587
aF0.14370635095610734
aF0.1398280517147007
aF0.13075034859841714
aF0.1622886144628
aF0.35125151725259707
aF0.18514996859213717
aF0.16017984636248275
aF0.13863096070095046
aF0.14170252436565028
aF0.12486253508862387
asS'lr'
p8
(lp9
F0.001
aF0.001
aF0.001
aF0.001
aF0.001
aF0.001
aF0.001
aF0.001
aF0.001
aF0.001
aF0.001
aF0.001
aF0.001
aF0.001
aF0.001
aF0.001
aF0.001
aF0.001
aF0.001
aF0.001
aF0.001
aF0.001
aF0.001
aF0.001
aF0.001
aF0.001
aF0.001
aF0.001
aF0.001
aF0.001
aF0.001
aF0.001
aF0.001
aF0.001
aF0.001
aF0.001
aF0.001
aF0.001
aF0.001
aF0.001
aF0.001
aF0.001
aF0.001
aF0.001
aF0.001
aF0.001
aF0.001
aF0.001
aF0.001
aF0.001
aF0.001
aF0.001
aF0.001
aF0.001
aF0.001
aF0.001
aF0.001
aF0.001
aF0.001
aF0.001
aF0.001
aF0.001
aF0.001
aF0.001
aF0.001
aF0.001
aF0.001
aF0.001
aF0.001
aF0.001
aF0.001
aF0.001
aF0.001
aF0.001
aF0.001
aF0.001
aF0.001
aF0.001
aF0.001
aF0.001
aF0.001
aF0.001
aF0.001
aF0.001
aF0.001
aF0.001
aF0.001
aF0.001
aF0.001
aF0.001
aF0.001
aF0.001
aF0.001
aF0.001
aF0.001
aF0.001
aF0.001
aF0.001
aF0.001
aF0.001
aF0.001
aF0.001
aF0.001
aF0.001
aF0.001
aF0.001
aF0.001
aF0.001
aF0.001
aF0.001
aF0.001
aF0.001
aF0.001
aF0.001
aF0.001
aF0.001
aF0.001
aF0.001
aF0.001
aF0.001
aF0.001
aF0.001
aF0.001
aF0.001
aF0.001
aF0.001
aF0.001
aF0.001
aF0.001
aF0.001
aF0.001
aF0.001
aF0.001
aF0.001
aF0.001
aF0.001
aF0.001
aF0.001
aF0.001
aF0.001
aF0.001
aF0.001
aF0.001
aF0.001
aF0.001
aF0.001
aF0.001
aF0.001
aF0.001
aF0.001
asS'training_avg_acc'
p10
(lp11
F3.822971787543507
aF7.000764028410538
aF7.883641302809926
aF10.29457539828518
aF14.12603639039022
aF17.716969919918505
aF21.381476555646735
aF25.657205919805314
aF30.456436231925068
aF35.759359348029086
aF40.11998075780299
aF44.02218512125414
aF47.43201562013639
aF50.969184187441634
aF54.47805540620844
aF58.43402473188262
aF62.88802739183338
aF67.3646679306149
aF72.05919805314242
aF75.79444806021675
aF78.87885905090693
aF81.63785053340501
aF83.67242989331899
aF85.32782478281786
aF87.03698463453975
aF88.22264353830046
aF89.2951130479074
aF90.40153937576049
aF91.11463255892923
aF91.90695831800561
aF92.97376835790486
aF93.69252101078129
aF94.006621579558
aF94.40844392880388
aF94.72254449758057
aF95.18945074846486
aF95.58561362800306
aF95.6648462039107
aF96.01573332578738
aF96.222303970118
aF96.38359885678712
aF96.58451003141006
aF96.86465378194063
aF96.8561645773791
aF96.94105662299442
aF97.19290302498656
aF97.23817878264806
aF97.43060075270947
aF97.45323863154023
aF97.67395795014008
aF97.58906590452474
aF97.77016893517077
aF97.91731514757068
aF97.74753105634002
aF97.97390984464755
aF97.98805851891677
aF98.06163162511673
aF98.01352613260137
aF98.06446135997057
aF98.26254279973966
aF98.16633181470897
aF98.3219672316704
aF98.37856192874727
aF98.3615835196242
aF98.37573219389343
aF98.37856192874727
aF98.50307026231643
aF98.48326211833951
aF98.54834601997793
aF98.68417329296246
aF98.56249469424715
aF98.48043238348566
aF98.58230283822405
aF98.61908939132404
aF98.73510852033165
aF98.81434109623929
aF98.76906533857778
aF98.72944905062396
aF98.77189507343162
aF98.8284897705085
aF98.83980870992389
aF98.88508446758539
aF98.8539573841931
aF98.86244658875464
aF98.9048926115623
aF98.85112764933926
aF98.93884942980843
aF98.89357367214691
aF99.02940094513144
aF98.99261439203147
aF99.08599564220833
aF99.01808200571607
aF98.98978465717762
aF99.10297405133139
aF99.09165511191601
aF99.11146325589293
aF99.07467670279294
aF99.1425903392852
aF99.02374147542375
aF99.1737174226775
aF99.14542007413905
aF99.08599564220833
aF99.21616344548517
aF99.13693086957753
aF99.1680579529698
aF99.26992840770819
aF99.17937689238518
aF99.08033617250064
aF99.25294999858514
aF99.24163105916976
aF99.22465265004669
aF99.28124734712357
aF99.28690681683126
aF99.24163105916976
aF99.23880132431592
aF99.34916098361583
aF99.25860946829282
aF99.20767424092362
aF99.26143920314667
aF99.30105549110048
aF99.32369336993123
aF99.35482045332353
aF99.43971249893885
aF99.28407708197741
aF99.36896912759275
aF99.38311780186197
aF99.42273408981579
aF99.46235037776961
aF99.28124734712357
aF99.3972664761312
aF99.43405302923117
aF99.36330965788505
aF99.42556382466962
aF99.4425422337927
aF99.41990435496194
aF99.40292594583887
aF99.4425422337927
aF99.47366931718499
aF99.44537196864654
aF99.42273408981579
aF99.48215852174651
aF99.436882764085
aF99.46800984747729
aF99.43971249893885
aF99.43971249893885
aF99.29539602139279
aF99.43405302923117
aF99.49064772630804
aF99.53026401426186
aF99.52460454455418
asS'training_avg_loss'
p12
(lp13
F3.740638477294459
aF3.658655381060344
aF3.5365262975676286
aF3.4063531222592127
aF3.2957401798632255
aF3.190062405632039
aF3.039861345254706
aF2.8305071965654798
aF2.6069072339749235
aF2.388529404870905
aF2.1849846408796174
aF2.0049204222802923
aF1.8502836573653203
aF1.7121941194512982
aF1.5791597116168574
aF1.4445063189094152
aF1.3011528861863715
aF1.152757899999153
aF1.0207749194073932
aF0.8974096668525903
aF0.7909049128949054
aF0.6969488308079501
aF0.6207810714041837
aF0.5548816550455682
aF0.49809320890733794
aF0.45136752521658785
aF0.40828620816380845
aF0.3742771946063906
aF0.3403805886522855
aF0.31401472800204167
aF0.2875234825224736
aF0.2625674337242276
aF0.24721642489472284
aF0.231235992753643
aF0.2176392791078189
aF0.20150202531800274
aF0.18814927357263694
aF0.18154556320345008
aF0.1704484011969794
aF0.16096735356662886
aF0.15078847353950706
aF0.14581069224333937
aF0.13490147462316615
aF0.13521468465015984
aF0.12796028799400652
aF0.11937858839857311
aF0.1195982696346241
aF0.11112766520730903
aF0.10781216818062714
aF0.10202150791440723
aF0.10100164730779121
aF0.09624934540886794
aF0.09201136815257502
aF0.09277655221586158
aF0.08783980398740228
aF0.0870365154095857
aF0.08326555471932154
aF0.08233216818313606
aF0.08204807176513038
aF0.07572012683990981
aF0.07583805937141314
aF0.0747920832949309
aF0.07027109262848073
aF0.06971883390764722
aF0.06753165281921336
aF0.06676712076764293
aF0.06429994823415587
aF0.06359013535480601
aF0.06341292582086083
aF0.06061757095024222
aF0.060932981294086905
aF0.060448313405219
aF0.05927227714402508
aF0.05747386285441531
aF0.05521715637186279
aF0.05272043411552732
aF0.05126466215337395
aF0.05225884236026193
aF0.05152780153351704
aF0.04962727190423469
aF0.04862883976111742
aF0.04852728453700964
aF0.048300263739684
aF0.04655817635070649
aF0.04479558886779097
aF0.04720049200308553
aF0.04484640541750377
aF0.04631024065165181
aF0.04279843437301947
aF0.04323431956076171
aF0.04049581260576107
aF0.04106778389412133
aF0.0421243060063235
aF0.03990910840178188
aF0.038630146236926885
aF0.039876033549276525
aF0.03911372640143092
aF0.037461038426624405
aF0.03901155772081724
aF0.03586006264548245
aF0.036131093476972576
aF0.037868173255601024
aF0.03478346811245113
aF0.037100709608551156
aF0.035002062542125706
aF0.03295519829644773
aF0.0339696148954965
aF0.035431955629016916
aF0.03159537433670522
aF0.03196473150950778
aF0.03250710613990911
aF0.03154950285660208
aF0.031172974646713838
aF0.031689885164938855
aF0.030569124850480734
aF0.02919527424890011
aF0.03109334455809625
aF0.030368390661101412
aF0.03009437149616537
aF0.02971253215489928
aF0.02974115719373547
aF0.027671266357922292
aF0.027364485806018177
aF0.029011297168374018
aF0.02784355420870877
aF0.02770350816419255
aF0.025927177532723476
aF0.02484663409963151
aF0.028977110084111236
aF0.024938266094066772
aF0.025967265999572865
aF0.025836864103202847
aF0.024484221414341933
aF0.024346105143385262
aF0.02465696851844882
aF0.024217936733065087
aF0.024280455765554775
aF0.02188046854205992
aF0.024610433086047448
aF0.02408203423805831
aF0.022574605309861436
aF0.02272526101730531
aF0.023797932815646548
aF0.023580567364000958
aF0.024042091578917294
aF0.028265039701297377
aF0.02328488312318203
aF0.021436289168481903
aF0.021281569499353045
aF0.021891394130284837
asS'best_val_acc'
p14
(lp15
I130
aF96.40826873385014
as.